

Microchip MPLAB XC8 Assembler V2.40 build 20220703182018 
                                                                                               Fri Jul 14 22:02:31 2023

Microchip MPLAB XC8 C Compiler v2.40 (Free license) build 20220703182018 Og1 
     1                           	processor	18F4620
     2                           	fnconf	rparam,??,?,0
     3                           	pagewidth 120
     4                           	opt	flic
     5                           	psect	idataCOMRAM,global,class=CODE,delta=1,noexec
     6                           	psect	idataBANK0,global,class=CODE,delta=1,noexec
     7                           	psect	smallconst,global,reloc=2,class=SMALLCONST,delta=1,noexec
     8                           	psect	cinit,global,reloc=2,class=CODE,delta=1
     9                           	psect	bssCOMRAM,global,class=COMRAM,space=1,delta=1,lowdata,noexec
    10                           	psect	dataCOMRAM,global,class=COMRAM,space=1,delta=1,lowdata,noexec
    11                           	psect	bssBANK0,global,class=BANK0,space=1,delta=1,lowdata,noexec
    12                           	psect	dataBANK0,global,class=BANK0,space=1,delta=1,lowdata,noexec
    13                           	psect	cstackBANK0,global,class=BANK0,space=1,delta=1,lowdata,noexec
    14                           	psect	cstackCOMRAM,global,class=COMRAM,space=1,delta=1,lowdata,noexec
    15                           	psect	text0,global,reloc=2,class=CODE,delta=1
    16                           	psect	text1,global,reloc=2,class=CODE,delta=1
    17                           	psect	text2,global,reloc=2,class=CODE,delta=1
    18                           	psect	text3,global,reloc=2,class=CODE,delta=1
    19                           	psect	text4,global,reloc=2,class=CODE,delta=1
    20                           	psect	text5,global,reloc=2,class=CODE,delta=1
    21                           	psect	text6,global,reloc=2,class=CODE,delta=1
    22                           	psect	text7,global,reloc=2,class=CODE,delta=1
    23                           	psect	text8,global,reloc=2,class=CODE,delta=1
    24                           	psect	text9,global,reloc=2,class=CODE,delta=1
    25                           	psect	text10,global,reloc=2,class=CODE,delta=1,group=1
    26                           	psect	text11,global,reloc=2,class=CODE,delta=1,group=1
    27                           	psect	text12,global,reloc=2,class=CODE,delta=1,group=1
    28                           	psect	text13,global,reloc=2,class=CODE,delta=1,group=1
    29                           	psect	text14,global,reloc=2,class=CODE,delta=1,inline
    30                           	psect	intcode,global,reloc=2,class=CODE,delta=1
    31                           	psect	intcode_body,global,reloc=2,class=CODE,delta=1
    32                           	psect	text16,global,reloc=2,class=CODE,delta=1
    33                           	psect	text17,global,reloc=2,class=CODE,delta=1
    34                           	psect	text18,global,reloc=2,class=CODE,delta=1
    35                           	psect	text19,global,reloc=2,class=CODE,delta=1
    36                           	psect	text20,global,reloc=2,class=CODE,delta=1
    37                           	psect	text21,global,reloc=2,class=CODE,delta=1
    38                           	psect	text22,global,reloc=2,class=CODE,delta=1
    39                           	psect	text23,global,reloc=2,class=CODE,delta=1
    40                           	psect	text24,global,reloc=2,class=CODE,delta=1
    41                           	psect	text25,global,reloc=2,class=CODE,delta=1
    42                           	psect	text26,global,reloc=2,class=CODE,delta=1
    43                           	psect	text27,global,reloc=2,class=CODE,delta=1
    44                           	psect	text28,global,reloc=2,class=CODE,delta=1
    45                           	psect	text29,global,reloc=2,class=CODE,delta=1
    46                           	psect	text30,global,reloc=2,class=CODE,delta=1
    47                           	psect	text31,global,reloc=2,class=CODE,delta=1
    48                           	psect	text32,global,reloc=2,class=CODE,delta=1
    49                           	psect	text33,global,reloc=2,class=CODE,delta=1
    50                           	psect	text34,global,reloc=2,class=CODE,delta=1
    51                           	psect	text35,global,reloc=2,class=CODE,delta=1
    52                           	psect	text36,global,reloc=2,class=CODE,delta=1
    53                           	psect	text37,global,reloc=2,class=CODE,delta=1
    54                           	psect	intsave_regs,global,class=BIGRAM,space=1,delta=1,noexec
    55                           	psect	text38,global,reloc=2,class=CODE,delta=1
    56                           	psect	rparam,global,class=COMRAM,space=1,delta=1,noexec
    57                           	psect	temp,global,ovrld,common,class=COMRAM,space=1,delta=1
    58                           	psect	idloc,global,abs,ovrld,class=IDLOC,space=5,delta=1,noexec
    59                           	psect	config,global,abs,ovrld,class=CONFIG,space=4,delta=1,noexec
    60   000000                     
    61                           ; Version 2.40
    62                           ; Generated 17/11/2021 GMT
    63                           ; 
    64                           ; Copyright © 2021, Microchip Technology Inc. and its subsidiaries ("Microchip")
    65                           ; All rights reserved.
    66                           ; 
    67                           ; This software is developed by Microchip Technology Inc. and its subsidiaries ("Microch
      +                          ip").
    68                           ; 
    69                           ; Redistribution and use in source and binary forms, with or without modification, are
    70                           ; permitted provided that the following conditions are met:
    71                           ; 
    72                           ;     1. Redistributions of source code must retain the above copyright notice, this lis
      +                          t of
    73                           ;        conditions and the following disclaimer.
    74                           ; 
    75                           ;     2. Redistributions in binary form must reproduce the above copyright notice, this 
      +                          list
    76                           ;        of conditions and the following disclaimer in the documentation and/or other
    77                           ;        materials provided with the distribution. Publication is not required when
    78                           ;        this file is used in an embedded application.
    79                           ; 
    80                           ;     3. Microchip's name may not be used to endorse or promote products derived from th
      +                          is
    81                           ;        software without specific prior written permission.
    82                           ; 
    83                           ; THIS SOFTWARE IS PROVIDED BY MICROCHIP "AS IS" AND ANY EXPRESS OR IMPLIED WARRANTIES,
    84                           ; INCLUDING, BUT NOT LIMITED TO, THE IMPLIED WARRANTIES OF MERCHANTABILITY AND FITNESS F
      +                          OR
    85                           ; PURPOSE ARE DISCLAIMED.  IN NO EVENT SHALL MICROCHIP BE LIABLE FOR ANY DIRECT, INDIREC
      +                          T,
    86                           ; INCIDENTAL, SPECIAL, EXEMPLARY, OR CONSEQUENTIAL DAMAGES (INCLUDING BUT NOT LIMITED TO
    87                           ; PROCUREMENT OF SUBSTITUTE GOODS OR SERVICES; LOSS OF USE, DATA OR PROFITS; OR BUSINESS
    88                           ; INTERRUPTION) HOWSOEVER CAUSED AND ON ANY THEORY OF LIABILITY, WHETHER IN CONTRACT, ST
      +                          RICT
    89                           ; LIABILITY, OR TORT (INCLUDING NEGLIGENCE OR OTHERWISE) ARISING IN ANY WAY OUT OF THE U
      +                          SE OF
    90                           ; THIS SOFTWARE, EVEN IF ADVISED OF THE POSSIBILITY OF SUCH DAMAGE.
    91                           ; 
    92                           ; 
    93                           ; Code-generator required, PIC18F4620 Definitions
    94                           ; 
    95                           ; SFR Addresses
    96   000000                     
    97                           	psect	idataCOMRAM
    98   002802                     __pidataCOMRAM:
    99                           	callstack 0
   100                           
   101                           ;initializer for _RB7_Flag
   102   002802  01                 	db	1
   103                           
   104                           ;initializer for _RB6_Flag
   105   002803  01                 	db	1
   106                           
   107                           ;initializer for _RB5_Flag
   108   002804  01                 	db	1
   109                           
   110                           ;initializer for _RB4_Flag
   111   002805  01                 	db	1
   112                           
   113                           ;initializer for _led1
   114   002806  12                 	db	18
   115                           
   116                           ;initializer for _led_D_0
   117   002807  03                 	db	3
   118                           
   119                           	psect	idataBANK0
   120   002722                     __pidataBANK0:
   121                           	callstack 0
   122                           
   123                           ;initializer for _port_registers
   124   002722  80                 	db	128
   125   002723  0F                 	db	15
   126   002724  81                 	db	129
   127   002725  0F                 	db	15
   128   002726  82                 	db	130
   129   002727  0F                 	db	15
   130   002728  83                 	db	131
   131   002729  0F                 	db	15
   132   00272A  84                 	db	132
   133   00272B  0F                 	db	15
   134                           
   135                           ;initializer for _lat_registers
   136   00272C  89                 	db	137
   137   00272D  0F                 	db	15
   138   00272E  8A                 	db	138
   139   00272F  0F                 	db	15
   140   002730  8B                 	db	139
   141   002731  0F                 	db	15
   142   002732  8C                 	db	140
   143   002733  0F                 	db	15
   144   002734  8D                 	db	141
   145   002735  0F                 	db	15
   146                           
   147                           ;initializer for _tris_registers
   148   002736  92                 	db	146
   149   002737  0F                 	db	15
   150   002738  93                 	db	147
   151   002739  0F                 	db	15
   152   00273A  94                 	db	148
   153   00273B  0F                 	db	15
   154   00273C  95                 	db	149
   155   00273D  0F                 	db	15
   156   00273E  96                 	db	150
   157   00273F  0F                 	db	15
   158                           
   159                           ;initializer for _lcd_1
   160   002740  02                 	db	2
   161   002741  0A                 	db	10
   162   002742  12                 	db	18
   163   002743  1A                 	db	26
   164   002744  22                 	db	34
   165   002745  2A                 	db	42
   166                           
   167                           ;initializer for _btn_c2
   168   002746  52                 	db	82
   169   002747  01                 	db	1
   170   002748  00                 	db	0
   171                           
   172                           	psect	smallconst
   173   001000                     __psmallconst:
   174                           	callstack 0
   175   001000  00                 	db	0
   176   001001  37                 	db	55
   177   001002  38                 	db	56
   178   001003  39                 	db	57
   179   001004  2F                 	db	47
   180   001005  34                 	db	52
   181   001006  35                 	db	53
   182   001007  36                 	db	54
   183   001008  2A                 	db	42
   184   001009  31                 	db	49
   185   00100A  32                 	db	50
   186   00100B  33                 	db	51
   187   00100C  2D                 	db	45
   188   00100D  23                 	db	35
   189   00100E  30                 	db	48
   190   00100F  3D                 	db	61
   191   001010  2B                 	db	43
   192   001011                     __end_of_btn_valus:
   193                           	callstack 0
   194   000000                     _SPBRGH	set	4016
   195   000000                     _SPBRG	set	4015
   196   000000                     _TXREG	set	4013
   197   000000                     _TXSTAbits	set	4012
   198   000000                     _RCREG	set	4014
   199   000000                     _TMR3L	set	4018
   200   000000                     _TMR3H	set	4019
   201   000000                     _TMR1L	set	4046
   202   000000                     _TMR1H	set	4047
   203   000000                     _TMR0L	set	4054
   204   000000                     _TMR0H	set	4055
   205   000000                     _RCSTAbits	set	4011
   206   000000                     _INTCON2bits	set	4081
   207   000000                     _SSPSTATbits	set	4039
   208   000000                     _SSPCON2bits	set	4037
   209   000000                     _SSPADD	set	4040
   210   000000                     _SSPCON1bits	set	4038
   211   000000                     _EECON2	set	4007
   212   000000                     _CCPR2H	set	4028
   213   000000                     _CCPR2L	set	4027
   214   000000                     _CCPR1H	set	4031
   215   000000                     _CCPR1L	set	4030
   216   000000                     _ADCON1bits	set	4033
   217   000000                     _ADRESL	set	4035
   218   000000                     _ADRESH	set	4036
   219   000000                     _INTCONbits	set	4082
   220   000000                     _TRISAbits	set	3986
   221   000000                     _PORTBbits	set	3969
   222   000000                     _TRISA	set	3986
   223   000000                     _PIE1bits	set	3997
   224   000000                     _ADCON2bits	set	4032
   225   000000                     _ADCON0bits	set	4034
   226   000000                     _PIE2bits	set	4000
   227   000000                     _CCP2CONbits	set	4026
   228   000000                     _CCP1CONbits	set	4029
   229   000000                     _PIR1bits	set	3998
   230   000000                     _TRISCbits	set	3988
   231   000000                     _TRISB	set	3987
   232   000000                     _TRISE	set	3990
   233   000000                     _EECON1bits	set	4006
   234   000000                     _EEDATA	set	4008
   235   000000                     _EEADR	set	4009
   236   000000                     _EEADRH	set	4010
   237   000000                     _T3CONbits	set	4017
   238   000000                     _PIR2bits	set	4001
   239   000000                     _TMR2	set	4044
   240   000000                     _T2CONbits	set	4042
   241   000000                     _T1CONbits	set	4045
   242   000000                     _T0CONbits	set	4053
   243   000000                     _INTCON3bits	set	4080
   244   000000                     _SSPBUF	set	4041
   245   000000                     _BAUDCONbits	set	4024
   246   001011                     STR_1:
   247   001011  25                 	db	37
   248   001012  69                 	db	105	;'i'
   249   001013  00                 	db	0
   250   001014  00                 	db	0	; dummy byte at the end
   251   000000                     
   252                           ; #config settings
   253                           
   254                           	psect	cinit
   255   002604                     __pcinit:
   256                           	callstack 0
   257   002604                     start_initialization:
   258                           	callstack 0
   259   002604                     __initialization:
   260                           	callstack 0
   261                           
   262                           ; Initialize objects allocated to BANK0 (39 bytes)
   263                           ; load TBLPTR registers with __pidataBANK0
   264   002604  0E22               	movlw	low __pidataBANK0
   265   002606  6EF6               	movwf	tblptrl,c
   266   002608  0E27               	movlw	high __pidataBANK0
   267   00260A  6EF7               	movwf	tblptrh,c
   268   00260C  0E00               	movlw	low (__pidataBANK0 shr (0+16))
   269   00260E  6EF8               	movwf	tblptru,c
   270   002610  EE00  F0AD         	lfsr	0,__pdataBANK0
   271   002614  EE10 F027          	lfsr	1,39
   272   002618                     copy_data0:
   273   002618  0009               	tblrd		*+
   274   00261A  CFF5 FFEE          	movff	tablat,postinc0
   275   00261E  50E5               	movf	postdec1,w,c
   276   002620  50E1               	movf	fsr1l,w,c
   277   002622  E1FA               	bnz	copy_data0
   278                           
   279                           ; Initialize objects allocated to COMRAM (6 bytes)
   280                           ; load TBLPTR registers with __pidataCOMRAM
   281   002624  0E02               	movlw	low __pidataCOMRAM
   282   002626  6EF6               	movwf	tblptrl,c
   283   002628  0E28               	movlw	high __pidataCOMRAM
   284   00262A  6EF7               	movwf	tblptrh,c
   285   00262C  0E00               	movlw	low (__pidataCOMRAM shr (0+16))
   286   00262E  6EF8               	movwf	tblptru,c
   287   002630  EE00  F071         	lfsr	0,__pdataCOMRAM
   288   002634  EE10 F006          	lfsr	1,6
   289   002638                     copy_data1:
   290   002638  0009               	tblrd		*+
   291   00263A  CFF5 FFEE          	movff	tablat,postinc0
   292   00263E  50E5               	movf	postdec1,w,c
   293   002640  50E1               	movf	fsr1l,w,c
   294   002642  E1FA               	bnz	copy_data1
   295                           
   296                           ; Clear objects allocated to BANK0 (45 bytes)
   297   002644  EE00  F080         	lfsr	0,__pbssBANK0
   298   002648  0E2D               	movlw	45
   299   00264A                     clear_0:
   300   00264A  6AEE               	clrf	postinc0,c
   301   00264C  06E8               	decf	wreg,f,c
   302   00264E  E1FD               	bnz	clear_0
   303                           
   304                           ; Clear objects allocated to COMRAM (41 bytes)
   305   002650  EE00  F048         	lfsr	0,__pbssCOMRAM
   306   002654  0E29               	movlw	41
   307   002656                     clear_1:
   308   002656  6AEE               	clrf	postinc0,c
   309   002658  06E8               	decf	wreg,f,c
   310   00265A  E1FD               	bnz	clear_1
   311   00265C                     end_of_initialization:
   312                           	callstack 0
   313   00265C                     __end_of__initialization:
   314                           	callstack 0
   315   00265C  9077               	bcf	int$flags,0,c	;clear compiler interrupt flag (level 1)
   316   00265E  9277               	bcf	int$flags,1,c	;clear compiler interrupt flag (level 2)
   317   002660  0100               	movlb	0
   318   002662  EFD7  F011         	goto	_main	;jump to C main() function
   319                           
   320                           	psect	bssCOMRAM
   321   000048                     __pbssCOMRAM:
   322                           	callstack 0
   323   000048                     _timer3_preload:
   324                           	callstack 0
   325   000048                     	ds	2
   326   00004A                     _timer1_preload:
   327                           	callstack 0
   328   00004A                     	ds	2
   329   00004C                     _timer0_preload:
   330                           	callstack 0
   331   00004C                     	ds	2
   332   00004E                     _RB5_InterruptHandlerHigh:
   333                           	callstack 0
   334   00004E                     	ds	2
   335   000050                     _RB4_InterruptHandlerLow:
   336                           	callstack 0
   337   000050                     	ds	2
   338   000052                     _RB4_InterruptHandlerHigh:
   339                           	callstack 0
   340   000052                     	ds	2
   341   000054                     _INT2_InterruptHandler:
   342                           	callstack 0
   343   000054                     	ds	2
   344   000056                     _INT1_InterruptHandler:
   345                           	callstack 0
   346   000056                     	ds	2
   347   000058                     _INT0_InterruptHandler:
   348                           	callstack 0
   349   000058                     	ds	2
   350   00005A                     _I2C_BUS_COLInterruptHandler:
   351                           	callstack 0
   352   00005A                     	ds	2
   353   00005C                     _I2CInterruptHandler:
   354                           	callstack 0
   355   00005C                     	ds	2
   356   00005E                     CCP_CompareModeSetValue@F3107:
   357                           	callstack 0
   358   00005E                     	ds	2
   359   000060                     _CCP2_InterruptHandler:
   360                           	callstack 0
   361   000060                     	ds	2
   362   000062                     _CCP1_InterruptHandler:
   363                           	callstack 0
   364   000062                     	ds	2
   365   000064                     _ADC_InterruptHandler:
   366                           	callstack 0
   367   000064                     	ds	2
   368   000066                     _i2c_slave_1_rec:
   369                           	callstack 0
   370   000066                     	ds	1
   371   000067                     _timer2_preload:
   372                           	callstack 0
   373   000067                     	ds	1
   374   000068                     relay_turn_off@F3049:
   375                           	callstack 0
   376   000068                     	ds	1
   377   000069                     relay_turn_on@F3044:
   378                           	callstack 0
   379   000069                     	ds	1
   380   00006A                     relay_initialize@F3039:
   381                           	callstack 0
   382   00006A                     	ds	1
   383   00006B                     led_turn_toggle@F3060:
   384                           	callstack 0
   385   00006B                     	ds	1
   386   00006C                     led_turn_off@F3055:
   387                           	callstack 0
   388   00006C                     	ds	1
   389   00006D                     led_turn_on@F3050:
   390                           	callstack 0
   391   00006D                     	ds	1
   392   00006E                     led_initialize@F3045:
   393                           	callstack 0
   394   00006E                     	ds	1
   395   00006F                     _i2c_slave_2rec:
   396                           	callstack 0
   397   00006F                     	ds	1
   398   000070                     _slave_ack:
   399                           	callstack 0
   400   000070                     	ds	1
   401                           
   402                           	psect	dataCOMRAM
   403   000071                     __pdataCOMRAM:
   404                           	callstack 0
   405   000071                     _RB7_Flag:
   406                           	callstack 0
   407   000071                     	ds	1
   408   000072                     _RB6_Flag:
   409                           	callstack 0
   410   000072                     	ds	1
   411   000073                     _RB5_Flag:
   412                           	callstack 0
   413   000073                     	ds	1
   414   000074                     _RB4_Flag:
   415                           	callstack 0
   416   000074                     	ds	1
   417   000075                     _led1:
   418                           	callstack 0
   419   000075                     	ds	1
   420   000076                     _led_D_0:
   421                           	callstack 0
   422   000076                     	ds	1
   423                           
   424                           	psect	bssBANK0
   425   000080                     __pbssBANK0:
   426                           	callstack 0
   427   000080                     _app_counter:
   428                           	callstack 0
   429   000080                     	ds	2
   430   000082                     _EUSART_OverrunErrorHandler:
   431                           	callstack 0
   432   000082                     	ds	2
   433   000084                     _EUSART_FramingErrorHandler:
   434                           	callstack 0
   435   000084                     	ds	2
   436   000086                     _EUSART_RxInterruptHandler:
   437                           	callstack 0
   438   000086                     	ds	2
   439   000088                     _EUSART_TxInterruptHandler:
   440                           	callstack 0
   441   000088                     	ds	2
   442   00008A                     _TIMER3_InterruptHandler:
   443                           	callstack 0
   444   00008A                     	ds	2
   445   00008C                     _TIMER2_InterruptHandler:
   446                           	callstack 0
   447   00008C                     	ds	2
   448   00008E                     _TIMER1_InterruptHandler:
   449                           	callstack 0
   450   00008E                     	ds	2
   451   000090                     _TIMER0_InterruptHandler:
   452                           	callstack 0
   453   000090                     	ds	2
   454   000092                     	ds	2
   455   000094                     _RB7_InterruptHandlerLow:
   456                           	callstack 0
   457   000094                     	ds	2
   458   000096                     _RB7_InterruptHandlerHigh:
   459                           	callstack 0
   460   000096                     	ds	2
   461   000098                     _RB6_InterruptHandlerLow:
   462                           	callstack 0
   463   000098                     	ds	2
   464   00009A                     _RB6_InterruptHandlerHigh:
   465                           	callstack 0
   466   00009A                     	ds	2
   467   00009C                     _RB5_InterruptHandlerLow:
   468                           	callstack 0
   469   00009C                     	ds	2
   470   00009E                     _I2C_Report_Receive_OverFlowInterruptHandler:
   471                           	callstack 0
   472   00009E                     	ds	2
   473   0000A0                     _i2c_obj:
   474                           	callstack 0
   475   0000A0                     	ds	13
   476                           
   477                           	psect	dataBANK0
   478   0000AD                     __pdataBANK0:
   479                           	callstack 0
   480   0000AD                     _port_registers:
   481                           	callstack 0
   482   0000AD                     	ds	10
   483   0000B7                     _lat_registers:
   484                           	callstack 0
   485   0000B7                     	ds	10
   486   0000C1                     _tris_registers:
   487                           	callstack 0
   488   0000C1                     	ds	10
   489   0000CB                     _lcd_1:
   490                           	callstack 0
   491   0000CB                     	ds	6
   492   0000D1                     _btn_c2:
   493                           	callstack 0
   494   0000D1                     	ds	3
   495                           
   496                           	psect	cstackBANK0
   497   0000D4                     __pcstackBANK0:
   498                           	callstack 0
   499   0000D4                     ___fltol@sign1:
   500                           	callstack 0
   501                           
   502                           ; 1 bytes @ 0x0
   503   0000D4                     	ds	1
   504   0000D5                     ___fltol@exp1:
   505                           	callstack 0
   506                           
   507                           ; 1 bytes @ 0x1
   508   0000D5                     	ds	1
   509   0000D6                     MSSP_I2C_Init@i2c_obj:
   510                           	callstack 0
   511                           
   512                           ; 2 bytes @ 0x2
   513   0000D6                     	ds	2
   514   0000D8                     ??_MSSP_I2C_Init:
   515                           
   516                           ; 1 bytes @ 0x4
   517   0000D8                     	ds	2
   518   0000DA                     MSSP_I2C_Init@ret:
   519                           	callstack 0
   520                           
   521                           ; 1 bytes @ 0x6
   522   0000DA                     	ds	1
   523                           
   524                           	psect	cstackCOMRAM
   525   000001                     __pcstackCOMRAM:
   526                           	callstack 0
   527   000001                     RB4_ISR@RB4_Source:
   528                           	callstack 0
   529   000001                     RB5_ISR@RB5_Source:
   530                           	callstack 0
   531   000001                     RB6_ISR@RB6_Source:
   532                           	callstack 0
   533   000001                     RB7_ISR@RB7_Source:
   534                           	callstack 0
   535   000001                     MSSP_I2C_SLAVE_Read_Write@i2c_obj:
   536                           	callstack 0
   537                           
   538                           ; 2 bytes @ 0x0
   539   000001                     	ds	2
   540   000003                     MSSP_I2C_SLAVE_Read_Write@i2c_data:
   541                           	callstack 0
   542                           
   543                           ; 2 bytes @ 0x2
   544   000003                     	ds	2
   545   000005                     ??_InterruptManager:
   546   000005                     
   547                           ; 1 bytes @ 0x4
   548   000005                     	ds	4
   549   000009                     ?___xxtofl:
   550                           	callstack 0
   551   000009                     gpio_pin_direction_initialize@_pin_config:
   552                           	callstack 0
   553   000009                     gpio_pin_write_logic@_pin_config:
   554                           	callstack 0
   555   000009                     MSSP_I2C_Interrupt_Configuration@i2c_obj:
   556                           	callstack 0
   557   000009                     ___xxtofl@val:
   558                           	callstack 0
   559                           
   560                           ; 4 bytes @ 0x8
   561   000009                     	ds	2
   562   00000B                     ??_gpio_pin_direction_initialize:
   563   00000B                     gpio_pin_write_logic@logic:
   564                           	callstack 0
   565                           
   566                           ; 1 bytes @ 0xA
   567   00000B                     	ds	1
   568   00000C                     ??_gpio_pin_write_logic:
   569                           
   570                           ; 1 bytes @ 0xB
   571   00000C                     	ds	1
   572   00000D                     ??___xxtofl:
   573                           
   574                           ; 1 bytes @ 0xC
   575   00000D                     	ds	4
   576   000011                     gpio_pin_direction_initialize@ret:
   577                           	callstack 0
   578   000011                     ___xxtofl@sign:
   579                           	callstack 0
   580                           
   581                           ; 1 bytes @ 0x10
   582   000011                     	ds	1
   583   000012                     gpio_pin_write_logic@ret:
   584                           	callstack 0
   585   000012                     ___xxtofl@exp:
   586                           	callstack 0
   587                           
   588                           ; 1 bytes @ 0x11
   589   000012                     	ds	1
   590   000013                     led_turn_on@led:
   591                           	callstack 0
   592   000013                     led_turn_off@led:
   593                           	callstack 0
   594   000013                     gpio_pin_initialize@_pin_config:
   595                           	callstack 0
   596   000013                     ___xxtofl@arg:
   597                           	callstack 0
   598                           
   599                           ; 4 bytes @ 0x12
   600   000013                     	ds	2
   601   000015                     ??_gpio_pin_initialize:
   602   000015                     ??_led_turn_on:
   603   000015                     ??_led_turn_off:
   604                           
   605                           ; 1 bytes @ 0x14
   606   000015                     	ds	1
   607   000016                     led_turn_on@pin_obj:
   608                           	callstack 0
   609   000016                     led_turn_off@pin_obj:
   610                           	callstack 0
   611   000016                     gpio_pin_initialize@ret:
   612                           	callstack 0
   613                           
   614                           ; 1 bytes @ 0x15
   615   000016                     	ds	1
   616   000017                     ?___fldiv:
   617                           	callstack 0
   618   000017                     led_initialize@led:
   619                           	callstack 0
   620   000017                     ___fldiv@b:
   621                           	callstack 0
   622                           
   623                           ; 4 bytes @ 0x16
   624   000017                     	ds	2
   625   000019                     ??_led_initialize:
   626                           
   627                           ; 1 bytes @ 0x18
   628   000019                     	ds	1
   629   00001A                     led_initialize@pin_obj:
   630                           	callstack 0
   631                           
   632                           ; 1 bytes @ 0x19
   633   00001A                     	ds	1
   634   00001B                     ___fldiv@a:
   635                           	callstack 0
   636                           
   637                           ; 4 bytes @ 0x1A
   638   00001B                     	ds	4
   639   00001F                     ??___fldiv:
   640                           
   641                           ; 1 bytes @ 0x1E
   642   00001F                     	ds	4
   643   000023                     ___fldiv@rem:
   644                           	callstack 0
   645                           
   646                           ; 4 bytes @ 0x22
   647   000023                     	ds	4
   648   000027                     ___fldiv@sign:
   649                           	callstack 0
   650                           
   651                           ; 1 bytes @ 0x26
   652   000027                     	ds	1
   653   000028                     ___fldiv@new_exp:
   654                           	callstack 0
   655                           
   656                           ; 2 bytes @ 0x27
   657   000028                     	ds	2
   658   00002A                     ___fldiv@grs:
   659                           	callstack 0
   660                           
   661                           ; 4 bytes @ 0x29
   662   00002A                     	ds	4
   663   00002E                     ___fldiv@bexp:
   664                           	callstack 0
   665                           
   666                           ; 1 bytes @ 0x2D
   667   00002E                     	ds	1
   668   00002F                     ___fldiv@aexp:
   669                           	callstack 0
   670                           
   671                           ; 1 bytes @ 0x2E
   672   00002F                     	ds	1
   673   000030                     ?___fladd:
   674                           	callstack 0
   675   000030                     ___fladd@b:
   676                           	callstack 0
   677                           
   678                           ; 4 bytes @ 0x2F
   679   000030                     	ds	4
   680   000034                     ___fladd@a:
   681                           	callstack 0
   682                           
   683                           ; 4 bytes @ 0x33
   684   000034                     	ds	4
   685   000038                     ??___fladd:
   686                           
   687                           ; 1 bytes @ 0x37
   688   000038                     	ds	4
   689   00003C                     ___fladd@signs:
   690                           	callstack 0
   691                           
   692                           ; 1 bytes @ 0x3B
   693   00003C                     	ds	1
   694   00003D                     ___fladd@aexp:
   695                           	callstack 0
   696                           
   697                           ; 1 bytes @ 0x3C
   698   00003D                     	ds	1
   699   00003E                     ___fladd@bexp:
   700                           	callstack 0
   701                           
   702                           ; 1 bytes @ 0x3D
   703   00003E                     	ds	1
   704   00003F                     ___fladd@grs:
   705                           	callstack 0
   706                           
   707                           ; 1 bytes @ 0x3E
   708   00003F                     	ds	1
   709   000040                     ?___fltol:
   710                           	callstack 0
   711   000040                     ___fltol@f1:
   712                           	callstack 0
   713                           
   714                           ; 4 bytes @ 0x3F
   715   000040                     	ds	4
   716   000044                     ??___fltol:
   717                           
   718                           ; 1 bytes @ 0x43
   719   000044                     	ds	4
   720   000048                     
   721                           ; 1 bytes @ 0x47
   722 ;;
   723 ;;Main: autosize = 0, tempsize = 0, incstack = 0, save=0
   724 ;;
   725 ;; *************** function _main *****************
   726 ;; Defined at:
   727 ;;		line 39 in file "application.c"
   728 ;; Parameters:    Size  Location     Type
   729 ;;		None
   730 ;; Auto vars:     Size  Location     Type
   731 ;;  ret             1    0        unsigned char 
   732 ;; Return value:  Size  Location     Type
   733 ;;                  2  1676[None  ] int 
   734 ;; Registers used:
   735 ;;		wreg, fsr2l, fsr2h, status,2, status,0, prodl, prodh, cstack
   736 ;; Tracked objects:
   737 ;;		On entry : 0/0
   738 ;;		On exit  : 0/0
   739 ;;		Unchanged: 0/0
   740 ;; Data sizes:     COMRAM   BANK0   BANK1   BANK2   BANK3   BANK4   BANK5   BANK6   BANK7   BANK8   BANK9  BANK10  BANK1
      +1  BANK12  BANK13  BANK14  BANK15
   741 ;;      Params:         0       0       0       0       0       0       0       0       0       0       0       0       
      +0       0       0       0       0
   742 ;;      Locals:         0       0       0       0       0       0       0       0       0       0       0       0       
      +0       0       0       0       0
   743 ;;      Temps:          0       0       0       0       0       0       0       0       0       0       0       0       
      +0       0       0       0       0
   744 ;;      Totals:         0       0       0       0       0       0       0       0       0       0       0       0       
      +0       0       0       0       0
   745 ;;Total ram usage:        0 bytes
   746 ;; Hardware stack levels required when called: 9
   747 ;; This function calls:
   748 ;;		_MSSP_I2C_Init
   749 ;;		_application_intialize
   750 ;;		_led_turn_off
   751 ;;		_led_turn_on
   752 ;; This function is called by:
   753 ;;		Startup code after reset
   754 ;; This function uses a non-reentrant model
   755 ;;
   756                           
   757                           	psect	text0
   758   0023AE                     __ptext0:
   759                           	callstack 0
   760   0023AE                     _main:
   761                           	callstack 22
   762   0023AE                     
   763                           ;application.c: 41:     application_intialize();
   764   0023AE  EC04  F014         	call	_application_intialize	;wreg free
   765   0023B2                     
   766                           ;application.c: 67:    i2c_obj.i2c_cfg.i2c_mode = 0;
   767   0023B2  0100               	movlb	0	; () banked
   768   0023B4  91A4               	bcf	(_i2c_obj+4)& (0+255),0,b
   769   0023B6                     
   770                           ; BSR set to: 0
   771                           ;application.c: 68:     i2c_obj.i2c_cfg.i2c_slave_address = 0x62;
   772   0023B6  0E62               	movlw	98
   773   0023B8  6FA2               	movwf	(_i2c_obj+2)& (0+255),b
   774   0023BA                     
   775                           ; BSR set to: 0
   776                           ;application.c: 69:     i2c_obj.i2c_cfg.i2c_mode_cfg = 0x06U;
   777   0023BA  0E06               	movlw	6
   778   0023BC  6FA3               	movwf	(_i2c_obj+3)& (0+255),b
   779   0023BE                     
   780                           ; BSR set to: 0
   781                           ;application.c: 70:     i2c_obj.i2c_cfg.i2c_slew_rate = 1;
   782   0023BE  83A4               	bsf	(_i2c_obj+4)& (0+255),1,b
   783   0023C0                     
   784                           ; BSR set to: 0
   785                           ;application.c: 71:     i2c_obj.i2c_cfg.i2c_SMBus_control = 0;
   786   0023C0  95A4               	bcf	(_i2c_obj+4)& (0+255),2,b
   787   0023C2                     
   788                           ; BSR set to: 0
   789                           ;application.c: 72:     i2c_obj.i2c_cfg.i2c_general_call = 0;
   790   0023C2  97A4               	bcf	(_i2c_obj+4)& (0+255),3,b
   791   0023C4                     
   792                           ; BSR set to: 0
   793                           ;application.c: 74:     i2c_obj.I2C_DefaultInterruptHandler = MSSP_I2C_DefaultInterruptH
      +                          andler;
   794   0023C4  0EB2               	movlw	low _MSSP_I2C_DefaultInterruptHandler
   795   0023C6  6FA5               	movwf	(_i2c_obj+5)& (0+255),b
   796   0023C8  0E27               	movlw	high _MSSP_I2C_DefaultInterruptHandler
   797   0023CA  6FA6               	movwf	(_i2c_obj+6)& (0+255),b
   798   0023CC                     
   799                           ; BSR set to: 0
   800                           ;application.c: 75:     i2c_obj.I2C_Report_Write_Collision = ((void*)0);
   801   0023CC  0E00               	movlw	0
   802   0023CE  6FA8               	movwf	(_i2c_obj+8)& (0+255),b
   803   0023D0  0E00               	movlw	0
   804   0023D2  6FA9               	movwf	(_i2c_obj+9)& (0+255),b
   805   0023D4                     
   806                           ; BSR set to: 0
   807                           ;application.c: 76:     i2c_obj.I2C_Report_Receive_Overflow = ((void*)0);
   808   0023D4  0E00               	movlw	0
   809   0023D6  6FAB               	movwf	(_i2c_obj+11)& (0+255),b
   810   0023D8  0E00               	movlw	0
   811   0023DA  6FAC               	movwf	(_i2c_obj+12)& (0+255),b
   812   0023DC                     
   813                           ; BSR set to: 0
   814   0023DC  0EA0               	movlw	low _i2c_obj
   815   0023DE  6FD6               	movwf	MSSP_I2C_Init@i2c_obj& (0+255),b
   816   0023E0  0E00               	movlw	high _i2c_obj
   817   0023E2  6FD7               	movwf	(MSSP_I2C_Init@i2c_obj+1)& (0+255),b
   818   0023E4  EC54  F00E         	call	_MSSP_I2C_Init	;wreg free
   819   0023E8                     l8230:
   820                           
   821                           ;application.c: 87:         app_counter++;
   822   0023E8  0100               	movlb	0	; () banked
   823   0023EA  4B80               	infsnz	_app_counter& (0+255),f,b
   824   0023EC  2B81               	incf	(_app_counter+1)& (0+255),f,b
   825   0023EE                     
   826                           ; BSR set to: 0
   827                           ;application.c: 104:         if(i2c_slave_2rec == 'b'){
   828   0023EE  0E62               	movlw	98
   829   0023F0  186F               	xorwf	_i2c_slave_2rec^0,w,c	;volatile
   830   0023F2  A4D8               	btfss	status,2,c
   831   0023F4  EFFE  F011         	goto	u8261
   832   0023F8  EF00  F012         	goto	u8260
   833   0023FC                     u8261:
   834   0023FC  EF08  F012         	goto	l8236
   835   002400                     u8260:
   836   002400                     
   837                           ; BSR set to: 0
   838                           ;application.c: 105:           led_turn_on(&led_D_0);
   839   002400  0E76               	movlw	low _led_D_0
   840   002402  6E13               	movwf	led_turn_on@led^0,c
   841   002404  0E00               	movlw	high _led_D_0
   842   002406  6E14               	movwf	(led_turn_on@led+1)^0,c
   843   002408  EC1D  F012         	call	_led_turn_on	;wreg free
   844                           
   845                           ;application.c: 106:         }else if(i2c_slave_2rec == 'd'){
   846   00240C  EFF4  F011         	goto	l8230
   847   002410                     l8236:
   848                           
   849                           ; BSR set to: 0
   850   002410  0E64               	movlw	100
   851   002412  186F               	xorwf	_i2c_slave_2rec^0,w,c	;volatile
   852   002414  A4D8               	btfss	status,2,c
   853   002416  EF0F  F012         	goto	u8271
   854   00241A  EF11  F012         	goto	u8270
   855   00241E                     u8271:
   856   00241E  EF19  F012         	goto	l1679
   857   002422                     u8270:
   858   002422                     
   859                           ; BSR set to: 0
   860                           ;application.c: 107:             led_turn_off(&led_D_0);
   861   002422  0E76               	movlw	low _led_D_0
   862   002424  6E13               	movwf	led_turn_off@led^0,c
   863   002426  0E00               	movlw	high _led_D_0
   864   002428  6E14               	movwf	(led_turn_off@led+1)^0,c
   865   00242A  EC58  F012         	call	_led_turn_off	;wreg free
   866                           
   867                           ;application.c: 108:         }else{}
   868   00242E  EFF4  F011         	goto	l8230
   869   002432                     l1679:
   870                           
   871                           ; BSR set to: 0
   872   002432  EFF4  F011         	goto	l8230
   873   002436  EF07  F000         	goto	start
   874   00243A                     __end_of_main:
   875                           	callstack 0
   876                           
   877 ;; *************** function _led_turn_on *****************
   878 ;; Defined at:
   879 ;;		line 44 in file "ECU_Layer/LED/ecu_led.c"
   880 ;; Parameters:    Size  Location     Type
   881 ;;  led             2   18[COMRAM] PTR const struct .
   882 ;;		 -> led_D_0(1), 
   883 ;; Auto vars:     Size  Location     Type
   884 ;;  pin_obj         1   21[COMRAM] struct .
   885 ;;  ret             1    0        unsigned char 
   886 ;; Return value:  Size  Location     Type
   887 ;;                  1    wreg      unsigned char 
   888 ;; Registers used:
   889 ;;		wreg, fsr2l, fsr2h, status,2, status,0, prodl, prodh, cstack
   890 ;; Tracked objects:
   891 ;;		On entry : 0/0
   892 ;;		On exit  : 0/0
   893 ;;		Unchanged: 0/0
   894 ;; Data sizes:     COMRAM   BANK0   BANK1   BANK2   BANK3   BANK4   BANK5   BANK6   BANK7   BANK8   BANK9  BANK10  BANK1
      +1  BANK12  BANK13  BANK14  BANK15
   895 ;;      Params:         2       0       0       0       0       0       0       0       0       0       0       0       
      +0       0       0       0       0
   896 ;;      Locals:         1       0       0       0       0       0       0       0       0       0       0       0       
      +0       0       0       0       0
   897 ;;      Temps:          1       0       0       0       0       0       0       0       0       0       0       0       
      +0       0       0       0       0
   898 ;;      Totals:         4       0       0       0       0       0       0       0       0       0       0       0       
      +0       0       0       0       0
   899 ;;Total ram usage:        4 bytes
   900 ;; Hardware stack levels used: 1
   901 ;; Hardware stack levels required when called: 5
   902 ;; This function calls:
   903 ;;		_gpio_pin_write_logic
   904 ;; This function is called by:
   905 ;;		_main
   906 ;; This function uses a non-reentrant model
   907 ;;
   908                           
   909                           	psect	text1
   910   00243A                     __ptext1:
   911                           	callstack 0
   912   00243A                     _led_turn_on:
   913                           	callstack 25
   914   00243A                     
   915                           ;ECU_Layer/LED/ecu_led.c: 47:     if(((void*)0) == led){
   916   00243A  5013               	movf	led_turn_on@led^0,w,c
   917   00243C  1014               	iorwf	(led_turn_on@led+1)^0,w,c
   918   00243E  A4D8               	btfss	status,2,c
   919   002440  EF24  F012         	goto	u5381
   920   002444  EF26  F012         	goto	u5380
   921   002448                     u5381:
   922   002448  EF28  F012         	goto	l289
   923   00244C                     u5380:
   924   00244C                     
   925                           ;ECU_Layer/LED/ecu_led.c: 49:     }else{
   926   00244C  EF57  F012         	goto	l293
   927   002450                     l289:
   928                           
   929                           ;ECU_Layer/LED/ecu_led.c: 50:         pin_config_t pin_obj = {
   930   002450  C06D  F016         	movff	led_turn_on@F3050,led_turn_on@pin_obj
   931   002454  C013  FFD9         	movff	led_turn_on@led,fsr2l
   932   002458  C014  FFDA         	movff	led_turn_on@led+1,fsr2h
   933   00245C  50DF               	movf	223,w,c
   934   00245E  0B0F               	andlw	15
   935   002460  6E15               	movwf	??_led_turn_on^0,c
   936   002462  5016               	movf	led_turn_on@pin_obj^0,w,c
   937   002464  1815               	xorwf	??_led_turn_on^0,w,c
   938   002466  0BF8               	andlw	-8
   939   002468  1815               	xorwf	??_led_turn_on^0,w,c
   940   00246A  6E16               	movwf	led_turn_on@pin_obj^0,c
   941   00246C  C013  FFD9         	movff	led_turn_on@led,fsr2l
   942   002470  C014  FFDA         	movff	led_turn_on@led+1,fsr2h
   943   002474  38DF               	swapf	223,w,c
   944   002476  0B07               	andlw	7
   945   002478  6E15               	movwf	??_led_turn_on^0,c
   946   00247A  4615               	rlncf	??_led_turn_on^0,f,c
   947   00247C  4615               	rlncf	??_led_turn_on^0,f,c
   948   00247E  4615               	rlncf	??_led_turn_on^0,f,c
   949   002480  5016               	movf	led_turn_on@pin_obj^0,w,c
   950   002482  1815               	xorwf	??_led_turn_on^0,w,c
   951   002484  0BC7               	andlw	-57
   952   002486  1815               	xorwf	??_led_turn_on^0,w,c
   953   002488  6E16               	movwf	led_turn_on@pin_obj^0,c
   954   00248A  9C16               	bcf	led_turn_on@pin_obj^0,6,c
   955   00248C  C013  FFD9         	movff	led_turn_on@led,fsr2l
   956   002490  C014  FFDA         	movff	led_turn_on@led+1,fsr2h
   957   002494  AEDF               	btfss	indf2,7,c
   958   002496  D002               	bra	u5395
   959   002498  8E16               	bsf	led_turn_on@pin_obj^0,7,c
   960   00249A  D001               	bra	u5397
   961   00249C                     u5395:
   962   00249C  9E16               	bcf	led_turn_on@pin_obj^0,7,c
   963   00249E                     u5397:
   964   00249E                     
   965                           ;ECU_Layer/LED/ecu_led.c: 56:         gpio_pin_write_logic(&pin_obj,GPIO_HIGH);
   966   00249E  0E16               	movlw	low led_turn_on@pin_obj
   967   0024A0  6E09               	movwf	gpio_pin_write_logic@_pin_config^0,c
   968   0024A2  0E00               	movlw	high led_turn_on@pin_obj
   969   0024A4  6E0A               	movwf	(gpio_pin_write_logic@_pin_config+1)^0,c
   970   0024A6  0E01               	movlw	1
   971   0024A8  6E0B               	movwf	gpio_pin_write_logic@logic^0,c
   972   0024AA  ECBD  F010         	call	_gpio_pin_write_logic	;wreg free
   973   0024AE                     l293:
   974   0024AE  0012               	return		;funcret
   975   0024B0                     __end_of_led_turn_on:
   976                           	callstack 0
   977                           
   978 ;; *************** function _led_turn_off *****************
   979 ;; Defined at:
   980 ;;		line 70 in file "ECU_Layer/LED/ecu_led.c"
   981 ;; Parameters:    Size  Location     Type
   982 ;;  led             2   18[COMRAM] PTR const struct .
   983 ;;		 -> led_D_0(1), 
   984 ;; Auto vars:     Size  Location     Type
   985 ;;  pin_obj         1   21[COMRAM] struct .
   986 ;;  ret             1    0        unsigned char 
   987 ;; Return value:  Size  Location     Type
   988 ;;                  1    wreg      unsigned char 
   989 ;; Registers used:
   990 ;;		wreg, fsr2l, fsr2h, status,2, status,0, prodl, prodh, cstack
   991 ;; Tracked objects:
   992 ;;		On entry : 0/0
   993 ;;		On exit  : 0/0
   994 ;;		Unchanged: 0/0
   995 ;; Data sizes:     COMRAM   BANK0   BANK1   BANK2   BANK3   BANK4   BANK5   BANK6   BANK7   BANK8   BANK9  BANK10  BANK1
      +1  BANK12  BANK13  BANK14  BANK15
   996 ;;      Params:         2       0       0       0       0       0       0       0       0       0       0       0       
      +0       0       0       0       0
   997 ;;      Locals:         1       0       0       0       0       0       0       0       0       0       0       0       
      +0       0       0       0       0
   998 ;;      Temps:          1       0       0       0       0       0       0       0       0       0       0       0       
      +0       0       0       0       0
   999 ;;      Totals:         4       0       0       0       0       0       0       0       0       0       0       0       
      +0       0       0       0       0
  1000 ;;Total ram usage:        4 bytes
  1001 ;; Hardware stack levels used: 1
  1002 ;; Hardware stack levels required when called: 5
  1003 ;; This function calls:
  1004 ;;		_gpio_pin_write_logic
  1005 ;; This function is called by:
  1006 ;;		_main
  1007 ;; This function uses a non-reentrant model
  1008 ;;
  1009                           
  1010                           	psect	text2
  1011   0024B0                     __ptext2:
  1012                           	callstack 0
  1013   0024B0                     _led_turn_off:
  1014                           	callstack 25
  1015   0024B0                     
  1016                           ;ECU_Layer/LED/ecu_led.c: 73:     if(((void*)0) == led){
  1017   0024B0  5013               	movf	led_turn_off@led^0,w,c
  1018   0024B2  1014               	iorwf	(led_turn_off@led+1)^0,w,c
  1019   0024B4  A4D8               	btfss	status,2,c
  1020   0024B6  EF5F  F012         	goto	u5401
  1021   0024BA  EF61  F012         	goto	u5400
  1022   0024BE                     u5401:
  1023   0024BE  EF63  F012         	goto	l296
  1024   0024C2                     u5400:
  1025   0024C2                     
  1026                           ;ECU_Layer/LED/ecu_led.c: 75:     }else{
  1027   0024C2  EF92  F012         	goto	l300
  1028   0024C6                     l296:
  1029                           
  1030                           ;ECU_Layer/LED/ecu_led.c: 76:         pin_config_t pin_obj = {
  1031   0024C6  C06C  F016         	movff	led_turn_off@F3055,led_turn_off@pin_obj
  1032   0024CA  C013  FFD9         	movff	led_turn_off@led,fsr2l
  1033   0024CE  C014  FFDA         	movff	led_turn_off@led+1,fsr2h
  1034   0024D2  50DF               	movf	223,w,c
  1035   0024D4  0B0F               	andlw	15
  1036   0024D6  6E15               	movwf	??_led_turn_off^0,c
  1037   0024D8  5016               	movf	led_turn_off@pin_obj^0,w,c
  1038   0024DA  1815               	xorwf	??_led_turn_off^0,w,c
  1039   0024DC  0BF8               	andlw	-8
  1040   0024DE  1815               	xorwf	??_led_turn_off^0,w,c
  1041   0024E0  6E16               	movwf	led_turn_off@pin_obj^0,c
  1042   0024E2  C013  FFD9         	movff	led_turn_off@led,fsr2l
  1043   0024E6  C014  FFDA         	movff	led_turn_off@led+1,fsr2h
  1044   0024EA  38DF               	swapf	223,w,c
  1045   0024EC  0B07               	andlw	7
  1046   0024EE  6E15               	movwf	??_led_turn_off^0,c
  1047   0024F0  4615               	rlncf	??_led_turn_off^0,f,c
  1048   0024F2  4615               	rlncf	??_led_turn_off^0,f,c
  1049   0024F4  4615               	rlncf	??_led_turn_off^0,f,c
  1050   0024F6  5016               	movf	led_turn_off@pin_obj^0,w,c
  1051   0024F8  1815               	xorwf	??_led_turn_off^0,w,c
  1052   0024FA  0BC7               	andlw	-57
  1053   0024FC  1815               	xorwf	??_led_turn_off^0,w,c
  1054   0024FE  6E16               	movwf	led_turn_off@pin_obj^0,c
  1055   002500  9C16               	bcf	led_turn_off@pin_obj^0,6,c
  1056   002502  C013  FFD9         	movff	led_turn_off@led,fsr2l
  1057   002506  C014  FFDA         	movff	led_turn_off@led+1,fsr2h
  1058   00250A  AEDF               	btfss	indf2,7,c
  1059   00250C  D002               	bra	u5415
  1060   00250E  8E16               	bsf	led_turn_off@pin_obj^0,7,c
  1061   002510  D001               	bra	u5417
  1062   002512                     u5415:
  1063   002512  9E16               	bcf	led_turn_off@pin_obj^0,7,c
  1064   002514                     u5417:
  1065   002514                     
  1066                           ;ECU_Layer/LED/ecu_led.c: 82:         gpio_pin_write_logic(&pin_obj,GPIO_LOW);
  1067   002514  0E16               	movlw	low led_turn_off@pin_obj
  1068   002516  6E09               	movwf	gpio_pin_write_logic@_pin_config^0,c
  1069   002518  0E00               	movlw	high led_turn_off@pin_obj
  1070   00251A  6E0A               	movwf	(gpio_pin_write_logic@_pin_config+1)^0,c
  1071   00251C  0E00               	movlw	0
  1072   00251E  6E0B               	movwf	gpio_pin_write_logic@logic^0,c
  1073   002520  ECBD  F010         	call	_gpio_pin_write_logic	;wreg free
  1074   002524                     l300:
  1075   002524  0012               	return		;funcret
  1076   002526                     __end_of_led_turn_off:
  1077                           	callstack 0
  1078                           
  1079 ;; *************** function _application_intialize *****************
  1080 ;; Defined at:
  1081 ;;		line 118 in file "application.c"
  1082 ;; Parameters:    Size  Location     Type
  1083 ;;		None
  1084 ;; Auto vars:     Size  Location     Type
  1085 ;;  ret             1    0        unsigned char 
  1086 ;; Return value:  Size  Location     Type
  1087 ;;                  1    wreg      void 
  1088 ;; Registers used:
  1089 ;;		wreg, fsr2l, fsr2h, status,2, status,0, prodl, prodh, cstack
  1090 ;; Tracked objects:
  1091 ;;		On entry : 0/0
  1092 ;;		On exit  : 0/0
  1093 ;;		Unchanged: 0/0
  1094 ;; Data sizes:     COMRAM   BANK0   BANK1   BANK2   BANK3   BANK4   BANK5   BANK6   BANK7   BANK8   BANK9  BANK10  BANK1
      +1  BANK12  BANK13  BANK14  BANK15
  1095 ;;      Params:         0       0       0       0       0       0       0       0       0       0       0       0       
      +0       0       0       0       0
  1096 ;;      Locals:         0       0       0       0       0       0       0       0       0       0       0       0       
      +0       0       0       0       0
  1097 ;;      Temps:          0       0       0       0       0       0       0       0       0       0       0       0       
      +0       0       0       0       0
  1098 ;;      Totals:         0       0       0       0       0       0       0       0       0       0       0       0       
      +0       0       0       0       0
  1099 ;;Total ram usage:        0 bytes
  1100 ;; Hardware stack levels used: 1
  1101 ;; Hardware stack levels required when called: 8
  1102 ;; This function calls:
  1103 ;;		_ecu_layer_initialize
  1104 ;; This function is called by:
  1105 ;;		_main
  1106 ;; This function uses a non-reentrant model
  1107 ;;
  1108                           
  1109                           	psect	text3
  1110   002808                     __ptext3:
  1111                           	callstack 0
  1112   002808                     _application_intialize:
  1113                           	callstack 22
  1114   002808                     
  1115                           ;application.c: 120:     ecu_layer_initialize();
  1116   002808  ECE4  F013         	call	_ecu_layer_initialize	;wreg free
  1117   00280C  0012               	return		;funcret
  1118   00280E                     __end_of_application_intialize:
  1119                           	callstack 0
  1120                           
  1121 ;; *************** function _ecu_layer_initialize *****************
  1122 ;; Defined at:
  1123 ;;		line 49 in file "ECU_Layer/ecu_layer_init.c"
  1124 ;; Parameters:    Size  Location     Type
  1125 ;;		None
  1126 ;; Auto vars:     Size  Location     Type
  1127 ;;		None
  1128 ;; Return value:  Size  Location     Type
  1129 ;;                  1    wreg      void 
  1130 ;; Registers used:
  1131 ;;		wreg, fsr2l, fsr2h, status,2, status,0, prodl, prodh, cstack
  1132 ;; Tracked objects:
  1133 ;;		On entry : 0/0
  1134 ;;		On exit  : 0/0
  1135 ;;		Unchanged: 0/0
  1136 ;; Data sizes:     COMRAM   BANK0   BANK1   BANK2   BANK3   BANK4   BANK5   BANK6   BANK7   BANK8   BANK9  BANK10  BANK1
      +1  BANK12  BANK13  BANK14  BANK15
  1137 ;;      Params:         0       0       0       0       0       0       0       0       0       0       0       0       
      +0       0       0       0       0
  1138 ;;      Locals:         0       0       0       0       0       0       0       0       0       0       0       0       
      +0       0       0       0       0
  1139 ;;      Temps:          0       0       0       0       0       0       0       0       0       0       0       0       
      +0       0       0       0       0
  1140 ;;      Totals:         0       0       0       0       0       0       0       0       0       0       0       0       
      +0       0       0       0       0
  1141 ;;Total ram usage:        0 bytes
  1142 ;; Hardware stack levels used: 1
  1143 ;; Hardware stack levels required when called: 7
  1144 ;; This function calls:
  1145 ;;		_led_initialize
  1146 ;; This function is called by:
  1147 ;;		_application_intialize
  1148 ;; This function uses a non-reentrant model
  1149 ;;
  1150                           
  1151                           	psect	text4
  1152   0027C8                     __ptext4:
  1153                           	callstack 0
  1154   0027C8                     _ecu_layer_initialize:
  1155                           	callstack 22
  1156   0027C8                     
  1157                           ;ECU_Layer/ecu_layer_init.c: 51:      led_initialize(&led_D_0);
  1158   0027C8  0E76               	movlw	low _led_D_0
  1159   0027CA  6E17               	movwf	led_initialize@led^0,c
  1160   0027CC  0E00               	movlw	high _led_D_0
  1161   0027CE  6E18               	movwf	(led_initialize@led+1)^0,c
  1162   0027D0  EC93  F012         	call	_led_initialize	;wreg free
  1163   0027D4  0012               	return		;funcret
  1164   0027D6                     __end_of_ecu_layer_initialize:
  1165                           	callstack 0
  1166                           
  1167 ;; *************** function _led_initialize *****************
  1168 ;; Defined at:
  1169 ;;		line 17 in file "ECU_Layer/LED/ecu_led.c"
  1170 ;; Parameters:    Size  Location     Type
  1171 ;;  led             2   22[COMRAM] PTR const struct .
  1172 ;;		 -> led_D_0(1), 
  1173 ;; Auto vars:     Size  Location     Type
  1174 ;;  pin_obj         1   25[COMRAM] struct .
  1175 ;;  ret             1    0        unsigned char 
  1176 ;; Return value:  Size  Location     Type
  1177 ;;                  1    wreg      unsigned char 
  1178 ;; Registers used:
  1179 ;;		wreg, fsr2l, fsr2h, status,2, status,0, prodl, prodh, cstack
  1180 ;; Tracked objects:
  1181 ;;		On entry : 0/0
  1182 ;;		On exit  : 0/0
  1183 ;;		Unchanged: 0/0
  1184 ;; Data sizes:     COMRAM   BANK0   BANK1   BANK2   BANK3   BANK4   BANK5   BANK6   BANK7   BANK8   BANK9  BANK10  BANK1
      +1  BANK12  BANK13  BANK14  BANK15
  1185 ;;      Params:         2       0       0       0       0       0       0       0       0       0       0       0       
      +0       0       0       0       0
  1186 ;;      Locals:         1       0       0       0       0       0       0       0       0       0       0       0       
      +0       0       0       0       0
  1187 ;;      Temps:          1       0       0       0       0       0       0       0       0       0       0       0       
      +0       0       0       0       0
  1188 ;;      Totals:         4       0       0       0       0       0       0       0       0       0       0       0       
      +0       0       0       0       0
  1189 ;;Total ram usage:        4 bytes
  1190 ;; Hardware stack levels used: 1
  1191 ;; Hardware stack levels required when called: 6
  1192 ;; This function calls:
  1193 ;;		_gpio_pin_initialize
  1194 ;; This function is called by:
  1195 ;;		_ecu_layer_initialize
  1196 ;; This function uses a non-reentrant model
  1197 ;;
  1198                           
  1199                           	psect	text5
  1200   002526                     __ptext5:
  1201                           	callstack 0
  1202   002526                     _led_initialize:
  1203                           	callstack 22
  1204   002526                     
  1205                           ;ECU_Layer/LED/ecu_led.c: 21:     if(((void*)0) == led){
  1206   002526  5017               	movf	led_initialize@led^0,w,c
  1207   002528  1018               	iorwf	(led_initialize@led+1)^0,w,c
  1208   00252A  A4D8               	btfss	status,2,c
  1209   00252C  EF9A  F012         	goto	u4361
  1210   002530  EF9C  F012         	goto	u4360
  1211   002534                     u4361:
  1212   002534  EF9E  F012         	goto	l282
  1213   002538                     u4360:
  1214   002538                     
  1215                           ;ECU_Layer/LED/ecu_led.c: 23:     }else{
  1216   002538  EFCB  F012         	goto	l286
  1217   00253C                     l282:
  1218                           
  1219                           ;ECU_Layer/LED/ecu_led.c: 24:     pin_config_t pin_obj = {
  1220   00253C  C06E  F01A         	movff	led_initialize@F3045,led_initialize@pin_obj
  1221   002540  C017  FFD9         	movff	led_initialize@led,fsr2l
  1222   002544  C018  FFDA         	movff	led_initialize@led+1,fsr2h
  1223   002548  50DF               	movf	223,w,c
  1224   00254A  0B0F               	andlw	15
  1225   00254C  6E19               	movwf	??_led_initialize^0,c
  1226   00254E  501A               	movf	led_initialize@pin_obj^0,w,c
  1227   002550  1819               	xorwf	??_led_initialize^0,w,c
  1228   002552  0BF8               	andlw	-8
  1229   002554  1819               	xorwf	??_led_initialize^0,w,c
  1230   002556  6E1A               	movwf	led_initialize@pin_obj^0,c
  1231   002558  C017  FFD9         	movff	led_initialize@led,fsr2l
  1232   00255C  C018  FFDA         	movff	led_initialize@led+1,fsr2h
  1233   002560  38DF               	swapf	223,w,c
  1234   002562  0B07               	andlw	7
  1235   002564  6E19               	movwf	??_led_initialize^0,c
  1236   002566  4619               	rlncf	??_led_initialize^0,f,c
  1237   002568  4619               	rlncf	??_led_initialize^0,f,c
  1238   00256A  4619               	rlncf	??_led_initialize^0,f,c
  1239   00256C  501A               	movf	led_initialize@pin_obj^0,w,c
  1240   00256E  1819               	xorwf	??_led_initialize^0,w,c
  1241   002570  0BC7               	andlw	-57
  1242   002572  1819               	xorwf	??_led_initialize^0,w,c
  1243   002574  6E1A               	movwf	led_initialize@pin_obj^0,c
  1244   002576  9C1A               	bcf	led_initialize@pin_obj^0,6,c
  1245   002578  C017  FFD9         	movff	led_initialize@led,fsr2l
  1246   00257C  C018  FFDA         	movff	led_initialize@led+1,fsr2h
  1247   002580  AEDF               	btfss	indf2,7,c
  1248   002582  D002               	bra	u4375
  1249   002584  8E1A               	bsf	led_initialize@pin_obj^0,7,c
  1250   002586  D001               	bra	u4377
  1251   002588                     u4375:
  1252   002588  9E1A               	bcf	led_initialize@pin_obj^0,7,c
  1253   00258A                     u4377:
  1254   00258A                     
  1255                           ;ECU_Layer/LED/ecu_led.c: 30:     gpio_pin_initialize(&pin_obj);
  1256   00258A  0E1A               	movlw	low led_initialize@pin_obj
  1257   00258C  6E13               	movwf	gpio_pin_initialize@_pin_config^0,c
  1258   00258E  0E00               	movlw	high led_initialize@pin_obj
  1259   002590  6E14               	movwf	(gpio_pin_initialize@_pin_config+1)^0,c
  1260   002592  ECCC  F012         	call	_gpio_pin_initialize	;wreg free
  1261   002596                     l286:
  1262   002596  0012               	return		;funcret
  1263   002598                     __end_of_led_initialize:
  1264                           	callstack 0
  1265                           
  1266 ;; *************** function _gpio_pin_initialize *****************
  1267 ;; Defined at:
  1268 ;;		line 149 in file "MCAL_Layer/GPIO/hal_gbio.c"
  1269 ;; Parameters:    Size  Location     Type
  1270 ;;  _pin_config     2   18[COMRAM] PTR const struct .
  1271 ;;		 -> relay_initialize@pin_obj(1), led_initialize@pin_obj(1), 
  1272 ;; Auto vars:     Size  Location     Type
  1273 ;;  ret             1   21[COMRAM] unsigned char 
  1274 ;; Return value:  Size  Location     Type
  1275 ;;                  1    wreg      unsigned char 
  1276 ;; Registers used:
  1277 ;;		wreg, fsr2l, fsr2h, status,2, status,0, prodl, prodh, cstack
  1278 ;; Tracked objects:
  1279 ;;		On entry : 0/0
  1280 ;;		On exit  : 0/0
  1281 ;;		Unchanged: 0/0
  1282 ;; Data sizes:     COMRAM   BANK0   BANK1   BANK2   BANK3   BANK4   BANK5   BANK6   BANK7   BANK8   BANK9  BANK10  BANK1
      +1  BANK12  BANK13  BANK14  BANK15
  1283 ;;      Params:         2       0       0       0       0       0       0       0       0       0       0       0       
      +0       0       0       0       0
  1284 ;;      Locals:         1       0       0       0       0       0       0       0       0       0       0       0       
      +0       0       0       0       0
  1285 ;;      Temps:          1       0       0       0       0       0       0       0       0       0       0       0       
      +0       0       0       0       0
  1286 ;;      Totals:         4       0       0       0       0       0       0       0       0       0       0       0       
      +0       0       0       0       0
  1287 ;;Total ram usage:        4 bytes
  1288 ;; Hardware stack levels used: 1
  1289 ;; Hardware stack levels required when called: 5
  1290 ;; This function calls:
  1291 ;;		_gpio_pin_direction_initialize
  1292 ;;		_gpio_pin_write_logic
  1293 ;; This function is called by:
  1294 ;;		_led_initialize
  1295 ;;		_lcd_4bit_initialize
  1296 ;;		_lcd_8bit_initialize
  1297 ;;		_dc_motor_initialize
  1298 ;;		_KeyPad_Initialize
  1299 ;;		_relay_initialize
  1300 ;;		_Seven_Segment_Initialize
  1301 ;;		_CCP_Init
  1302 ;; This function uses a non-reentrant model
  1303 ;;
  1304                           
  1305                           	psect	text6
  1306   002598                     __ptext6:
  1307                           	callstack 0
  1308   002598                     _gpio_pin_initialize:
  1309                           	callstack 22
  1310   002598                     
  1311                           ;MCAL_Layer/GPIO/hal_gbio.c: 152:     if(((void*)0) == _pin_config || _pin_config->pin >
      +                           8 -1){
  1312   002598  5013               	movf	gpio_pin_initialize@_pin_config^0,w,c
  1313   00259A  1014               	iorwf	(gpio_pin_initialize@_pin_config+1)^0,w,c
  1314   00259C  B4D8               	btfsc	status,2,c
  1315   00259E  EFD3  F012         	goto	u4341
  1316   0025A2  EFD5  F012         	goto	u4340
  1317   0025A6                     u4341:
  1318   0025A6  EFE6  F012         	goto	l5596
  1319   0025AA                     u4340:
  1320   0025AA  C013  FFD9         	movff	gpio_pin_initialize@_pin_config,fsr2l
  1321   0025AE  C014  FFDA         	movff	gpio_pin_initialize@_pin_config+1,fsr2h
  1322   0025B2  30DF               	rrcf	223,w,c
  1323   0025B4  32E8               	rrcf	wreg,f,c
  1324   0025B6  32E8               	rrcf	wreg,f,c
  1325   0025B8  0B07               	andlw	7
  1326   0025BA  6E15               	movwf	??_gpio_pin_initialize^0,c
  1327   0025BC  0E07               	movlw	7
  1328   0025BE  6415               	cpfsgt	??_gpio_pin_initialize^0,c
  1329   0025C0  EFE4  F012         	goto	u4351
  1330   0025C4  EFE6  F012         	goto	u4350
  1331   0025C8                     u4351:
  1332   0025C8  EFEA  F012         	goto	l5598
  1333   0025CC                     u4350:
  1334   0025CC                     l5596:
  1335                           
  1336                           ;MCAL_Layer/GPIO/hal_gbio.c: 153:         ret = (Std_ReturnType)0x00;
  1337   0025CC  0E00               	movlw	0
  1338   0025CE  6E16               	movwf	gpio_pin_initialize@ret^0,c
  1339                           
  1340                           ;MCAL_Layer/GPIO/hal_gbio.c: 154:     }else{
  1341   0025D0  EF00  F013         	goto	l5600
  1342   0025D4                     l5598:
  1343                           
  1344                           ;MCAL_Layer/GPIO/hal_gbio.c: 155:         ret = gpio_pin_direction_initialize(_pin_confi
      +                          g);
  1345   0025D4  C013  F009         	movff	gpio_pin_initialize@_pin_config,gpio_pin_direction_initialize@_pin_config
  1346   0025D8  C014  F00A         	movff	gpio_pin_initialize@_pin_config+1,gpio_pin_direction_initialize@_pin_config+1
  1347   0025DC  EC1B  F010         	call	_gpio_pin_direction_initialize	;wreg free
  1348   0025E0  6E16               	movwf	gpio_pin_initialize@ret^0,c
  1349                           
  1350                           ;MCAL_Layer/GPIO/hal_gbio.c: 156:         ret = gpio_pin_write_logic(_pin_config, _pin_c
      +                          onfig->logic);
  1351   0025E2  C013  F009         	movff	gpio_pin_initialize@_pin_config,gpio_pin_write_logic@_pin_config
  1352   0025E6  C014  F00A         	movff	gpio_pin_initialize@_pin_config+1,gpio_pin_write_logic@_pin_config+1
  1353   0025EA  C013  FFD9         	movff	gpio_pin_initialize@_pin_config,fsr2l
  1354   0025EE  C014  FFDA         	movff	gpio_pin_initialize@_pin_config+1,fsr2h
  1355   0025F2  0E00               	movlw	0
  1356   0025F4  BEDF               	btfsc	indf2,7,c
  1357   0025F6  0E01               	movlw	1
  1358   0025F8  6E0B               	movwf	gpio_pin_write_logic@logic^0,c
  1359   0025FA  ECBD  F010         	call	_gpio_pin_write_logic	;wreg free
  1360   0025FE  6E16               	movwf	gpio_pin_initialize@ret^0,c
  1361   002600                     l5600:
  1362                           
  1363                           ;MCAL_Layer/GPIO/hal_gbio.c: 159:     return ret;
  1364   002600  5016               	movf	gpio_pin_initialize@ret^0,w,c
  1365   002602  0012               	return		;funcret
  1366   002604                     __end_of_gpio_pin_initialize:
  1367                           	callstack 0
  1368                           
  1369 ;; *************** function _gpio_pin_write_logic *****************
  1370 ;; Defined at:
  1371 ;;		line 74 in file "MCAL_Layer/GPIO/hal_gbio.c"
  1372 ;; Parameters:    Size  Location     Type
  1373 ;;  _pin_config     2    8[COMRAM] PTR const struct .
  1374 ;;		 -> relay_turn_off@pin_obj(1), relay_turn_on@pin_obj(1), relay_initialize@pin_obj(1), led_turn_off@pin_obj(1), 
  1375 ;;		 -> led_turn_on@pin_obj(1), led_initialize@pin_obj(1), 
  1376 ;;  logic           1   10[COMRAM] enum E2965
  1377 ;; Auto vars:     Size  Location     Type
  1378 ;;  ret             1   17[COMRAM] unsigned char 
  1379 ;; Return value:  Size  Location     Type
  1380 ;;                  1    wreg      unsigned char 
  1381 ;; Registers used:
  1382 ;;		wreg, fsr2l, fsr2h, status,2, status,0, prodl, prodh
  1383 ;; Tracked objects:
  1384 ;;		On entry : 0/0
  1385 ;;		On exit  : 0/0
  1386 ;;		Unchanged: 0/0
  1387 ;; Data sizes:     COMRAM   BANK0   BANK1   BANK2   BANK3   BANK4   BANK5   BANK6   BANK7   BANK8   BANK9  BANK10  BANK1
      +1  BANK12  BANK13  BANK14  BANK15
  1388 ;;      Params:         3       0       0       0       0       0       0       0       0       0       0       0       
      +0       0       0       0       0
  1389 ;;      Locals:         1       0       0       0       0       0       0       0       0       0       0       0       
      +0       0       0       0       0
  1390 ;;      Temps:          6       0       0       0       0       0       0       0       0       0       0       0       
      +0       0       0       0       0
  1391 ;;      Totals:        10       0       0       0       0       0       0       0       0       0       0       0       
      +0       0       0       0       0
  1392 ;;Total ram usage:       10 bytes
  1393 ;; Hardware stack levels used: 1
  1394 ;; Hardware stack levels required when called: 4
  1395 ;; This function calls:
  1396 ;;		Nothing
  1397 ;; This function is called by:
  1398 ;;		_led_turn_on
  1399 ;;		_led_turn_off
  1400 ;;		_gpio_pin_initialize
  1401 ;;		_lcd_4bit_send_command
  1402 ;;		_lcd_4bit_send_char_data
  1403 ;;		_lcd_8bit_send_command
  1404 ;;		_lcd_8bit_send_char_data
  1405 ;;		_lcd_send_4bit
  1406 ;;		_lcd_4bit_send_enable_signal
  1407 ;;		_lcd_8bit_send_enable_signal
  1408 ;;		_dc_motor_move_right
  1409 ;;		_dc_motor_move_left
  1410 ;;		_dc_motor_stop
  1411 ;;		_KeyPad_Get_Value
  1412 ;;		_relay_turn_on
  1413 ;;		_relay_turn_off
  1414 ;;		_Seven_Segment_Write_Number
  1415 ;; This function uses a non-reentrant model
  1416 ;;
  1417                           
  1418                           	psect	text7
  1419   00217A                     __ptext7:
  1420                           	callstack 0
  1421   00217A                     _gpio_pin_write_logic:
  1422                           	callstack 25
  1423   00217A                     
  1424                           ;MCAL_Layer/GPIO/hal_gbio.c: 74: Std_ReturnType gpio_pin_write_logic(const pin_config_t 
      +                          *_pin_config, logic_t logic);MCAL_Layer/GPIO/hal_gbio.c: 75: {;MCAL_Layer/GPIO/hal_gbio.
      +                          c: 76:     Std_ReturnType ret = (Std_ReturnType)0x01;
  1425   00217A  0E01               	movlw	1
  1426   00217C  6E12               	movwf	gpio_pin_write_logic@ret^0,c
  1427   00217E                     
  1428                           ;MCAL_Layer/GPIO/hal_gbio.c: 77:     if(((void*)0) == _pin_config || _pin_config->pin > 
      +                          8 -1){
  1429   00217E  5009               	movf	gpio_pin_write_logic@_pin_config^0,w,c
  1430   002180  100A               	iorwf	(gpio_pin_write_logic@_pin_config+1)^0,w,c
  1431   002182  B4D8               	btfsc	status,2,c
  1432   002184  EFC6  F010         	goto	u4301
  1433   002188  EFC8  F010         	goto	u4300
  1434   00218C                     u4301:
  1435   00218C  EFD9  F010         	goto	l5572
  1436   002190                     u4300:
  1437   002190  C009  FFD9         	movff	gpio_pin_write_logic@_pin_config,fsr2l
  1438   002194  C00A  FFDA         	movff	gpio_pin_write_logic@_pin_config+1,fsr2h
  1439   002198  30DF               	rrcf	223,w,c
  1440   00219A  32E8               	rrcf	wreg,f,c
  1441   00219C  32E8               	rrcf	wreg,f,c
  1442   00219E  0B07               	andlw	7
  1443   0021A0  6E0C               	movwf	??_gpio_pin_write_logic^0,c
  1444   0021A2  0E07               	movlw	7
  1445   0021A4  640C               	cpfsgt	??_gpio_pin_write_logic^0,c
  1446   0021A6  EFD7  F010         	goto	u4311
  1447   0021AA  EFD9  F010         	goto	u4310
  1448   0021AE                     u4311:
  1449   0021AE  EF3C  F011         	goto	l5580
  1450   0021B2                     u4310:
  1451   0021B2                     l5572:
  1452                           
  1453                           ;MCAL_Layer/GPIO/hal_gbio.c: 78:         ret = (Std_ReturnType)0x00;
  1454   0021B2  0E00               	movlw	0
  1455   0021B4  6E12               	movwf	gpio_pin_write_logic@ret^0,c
  1456                           
  1457                           ;MCAL_Layer/GPIO/hal_gbio.c: 79:     }else{
  1458   0021B6  EF51  F011         	goto	l5582
  1459   0021BA                     l5574:
  1460                           
  1461                           ;MCAL_Layer/GPIO/hal_gbio.c: 82:                 (*lat_registers[_pin_config->port] |= (
      +                          (uint8)1 << _pin_config->pin));
  1462   0021BA  C009  FFD9         	movff	gpio_pin_write_logic@_pin_config,fsr2l
  1463   0021BE  C00A  FFDA         	movff	gpio_pin_write_logic@_pin_config+1,fsr2h
  1464   0021C2  30DF               	rrcf	223,w,c
  1465   0021C4  32E8               	rrcf	wreg,f,c
  1466   0021C6  32E8               	rrcf	wreg,f,c
  1467   0021C8  0B07               	andlw	7
  1468   0021CA  6E0C               	movwf	??_gpio_pin_write_logic^0,c
  1469   0021CC  0E01               	movlw	1
  1470   0021CE  6E0D               	movwf	(??_gpio_pin_write_logic+1)^0,c
  1471   0021D0  2A0C               	incf	??_gpio_pin_write_logic^0,f,c
  1472   0021D2  EFED  F010         	goto	u4324
  1473   0021D6                     u4325:
  1474   0021D6  90D8               	bcf	status,0,c
  1475   0021D8  360D               	rlcf	(??_gpio_pin_write_logic+1)^0,f,c
  1476   0021DA                     u4324:
  1477   0021DA  2E0C               	decfsz	??_gpio_pin_write_logic^0,f,c
  1478   0021DC  EFEB  F010         	goto	u4325
  1479   0021E0  C009  FFD9         	movff	gpio_pin_write_logic@_pin_config,fsr2l
  1480   0021E4  C00A  FFDA         	movff	gpio_pin_write_logic@_pin_config+1,fsr2h
  1481   0021E8  50DF               	movf	223,w,c
  1482   0021EA  0B07               	andlw	7
  1483   0021EC  6E0E               	movwf	(??_gpio_pin_write_logic+2)^0,c
  1484   0021EE  500E               	movf	(??_gpio_pin_write_logic+2)^0,w,c
  1485   0021F0  0D02               	mullw	2
  1486   0021F2  0EB7               	movlw	low _lat_registers
  1487   0021F4  24F3               	addwf	243,w,c
  1488   0021F6  6ED9               	movwf	fsr2l,c
  1489   0021F8  0E00               	movlw	high _lat_registers
  1490   0021FA  20F4               	addwfc	prodh,w,c
  1491   0021FC  6EDA               	movwf	fsr2h,c
  1492   0021FE  CFDE F00F          	movff	postinc2,??_gpio_pin_write_logic+3
  1493   002202  CFDD F010          	movff	postdec2,??_gpio_pin_write_logic+4
  1494   002206  C00F  FFD9         	movff	??_gpio_pin_write_logic+3,fsr2l
  1495   00220A  C010  FFDA         	movff	??_gpio_pin_write_logic+4,fsr2h
  1496   00220E  500D               	movf	(??_gpio_pin_write_logic+1)^0,w,c
  1497   002210  12DF               	iorwf	indf2,f,c
  1498                           
  1499                           ;MCAL_Layer/GPIO/hal_gbio.c: 83:                 break;
  1500   002212  EF51  F011         	goto	l5582
  1501   002216                     l5576:
  1502                           
  1503                           ;MCAL_Layer/GPIO/hal_gbio.c: 85:                 (*lat_registers[_pin_config->port] &= ~
      +                          ((uint8)1 << _pin_config->pin));
  1504   002216  C009  FFD9         	movff	gpio_pin_write_logic@_pin_config,fsr2l
  1505   00221A  C00A  FFDA         	movff	gpio_pin_write_logic@_pin_config+1,fsr2h
  1506   00221E  30DF               	rrcf	223,w,c
  1507   002220  32E8               	rrcf	wreg,f,c
  1508   002222  32E8               	rrcf	wreg,f,c
  1509   002224  0B07               	andlw	7
  1510   002226  6E0C               	movwf	??_gpio_pin_write_logic^0,c
  1511   002228  0E01               	movlw	1
  1512   00222A  6E0D               	movwf	(??_gpio_pin_write_logic+1)^0,c
  1513   00222C  2A0C               	incf	??_gpio_pin_write_logic^0,f,c
  1514   00222E  EF1B  F011         	goto	u4334
  1515   002232                     u4335:
  1516   002232  90D8               	bcf	status,0,c
  1517   002234  360D               	rlcf	(??_gpio_pin_write_logic+1)^0,f,c
  1518   002236                     u4334:
  1519   002236  2E0C               	decfsz	??_gpio_pin_write_logic^0,f,c
  1520   002238  EF19  F011         	goto	u4335
  1521   00223C  500D               	movf	(??_gpio_pin_write_logic+1)^0,w,c
  1522   00223E  0AFF               	xorlw	255
  1523   002240  6E0E               	movwf	(??_gpio_pin_write_logic+2)^0,c
  1524   002242  C009  FFD9         	movff	gpio_pin_write_logic@_pin_config,fsr2l
  1525   002246  C00A  FFDA         	movff	gpio_pin_write_logic@_pin_config+1,fsr2h
  1526   00224A  50DF               	movf	223,w,c
  1527   00224C  0B07               	andlw	7
  1528   00224E  6E0F               	movwf	(??_gpio_pin_write_logic+3)^0,c
  1529   002250  500F               	movf	(??_gpio_pin_write_logic+3)^0,w,c
  1530   002252  0D02               	mullw	2
  1531   002254  0EB7               	movlw	low _lat_registers
  1532   002256  24F3               	addwf	243,w,c
  1533   002258  6ED9               	movwf	fsr2l,c
  1534   00225A  0E00               	movlw	high _lat_registers
  1535   00225C  20F4               	addwfc	prodh,w,c
  1536   00225E  6EDA               	movwf	fsr2h,c
  1537   002260  CFDE F010          	movff	postinc2,??_gpio_pin_write_logic+4
  1538   002264  CFDD F011          	movff	postdec2,??_gpio_pin_write_logic+5
  1539   002268  C010  FFD9         	movff	??_gpio_pin_write_logic+4,fsr2l
  1540   00226C  C011  FFDA         	movff	??_gpio_pin_write_logic+5,fsr2h
  1541   002270  500E               	movf	(??_gpio_pin_write_logic+2)^0,w,c
  1542   002272  16DF               	andwf	indf2,f,c
  1543                           
  1544                           ;MCAL_Layer/GPIO/hal_gbio.c: 86:                 break;
  1545   002274  EF51  F011         	goto	l5582
  1546   002278                     l5580:
  1547   002278  500B               	movf	gpio_pin_write_logic@logic^0,w,c
  1548   00227A  6E0C               	movwf	??_gpio_pin_write_logic^0,c
  1549   00227C  6A0D               	clrf	(??_gpio_pin_write_logic+1)^0,c
  1550                           
  1551                           ; Switch on 2 bytes has been partitioned into a top level switch of size 1, and 1 sub-sw
      +                          itches
  1552                           ; Switch size 1, requested type "simple"
  1553                           ; Number of cases is 1, Range of values is 0 to 0
  1554                           ; switch strategies available:
  1555                           ; Name         Instructions Cycles
  1556                           ; simple_byte            4     3 (average)
  1557                           ;	Chosen strategy is simple_byte
  1558   00227E  500D               	movf	(??_gpio_pin_write_logic+1)^0,w,c
  1559   002280  0A00               	xorlw	0	; case 0
  1560   002282  B4D8               	btfsc	status,2,c
  1561   002284  EF46  F011         	goto	l8280
  1562   002288  EFD9  F010         	goto	l5572
  1563   00228C                     l8280:
  1564                           
  1565                           ; Switch size 1, requested type "simple"
  1566                           ; Number of cases is 2, Range of values is 0 to 1
  1567                           ; switch strategies available:
  1568                           ; Name         Instructions Cycles
  1569                           ; simple_byte            7     4 (average)
  1570                           ;	Chosen strategy is simple_byte
  1571   00228C  500C               	movf	??_gpio_pin_write_logic^0,w,c
  1572   00228E  0A00               	xorlw	0	; case 0
  1573   002290  B4D8               	btfsc	status,2,c
  1574   002292  EF0B  F011         	goto	l5576
  1575   002296  0A01               	xorlw	1	; case 1
  1576   002298  B4D8               	btfsc	status,2,c
  1577   00229A  EFDD  F010         	goto	l5574
  1578   00229E  EFD9  F010         	goto	l5572
  1579   0022A2                     l5582:
  1580                           
  1581                           ;MCAL_Layer/GPIO/hal_gbio.c: 94:     return ret;
  1582   0022A2  5012               	movf	gpio_pin_write_logic@ret^0,w,c
  1583   0022A4  0012               	return		;funcret
  1584   0022A6                     __end_of_gpio_pin_write_logic:
  1585                           	callstack 0
  1586                           
  1587 ;; *************** function _gpio_pin_direction_initialize *****************
  1588 ;; Defined at:
  1589 ;;		line 22 in file "MCAL_Layer/GPIO/hal_gbio.c"
  1590 ;; Parameters:    Size  Location     Type
  1591 ;;  _pin_config     2    8[COMRAM] PTR const struct .
  1592 ;;		 -> relay_initialize@pin_obj(1), led_initialize@pin_obj(1), 
  1593 ;; Auto vars:     Size  Location     Type
  1594 ;;  ret             1   16[COMRAM] unsigned char 
  1595 ;; Return value:  Size  Location     Type
  1596 ;;                  1    wreg      unsigned char 
  1597 ;; Registers used:
  1598 ;;		wreg, fsr2l, fsr2h, status,2, status,0, prodl, prodh
  1599 ;; Tracked objects:
  1600 ;;		On entry : 0/0
  1601 ;;		On exit  : 0/0
  1602 ;;		Unchanged: 0/0
  1603 ;; Data sizes:     COMRAM   BANK0   BANK1   BANK2   BANK3   BANK4   BANK5   BANK6   BANK7   BANK8   BANK9  BANK10  BANK1
      +1  BANK12  BANK13  BANK14  BANK15
  1604 ;;      Params:         2       0       0       0       0       0       0       0       0       0       0       0       
      +0       0       0       0       0
  1605 ;;      Locals:         1       0       0       0       0       0       0       0       0       0       0       0       
      +0       0       0       0       0
  1606 ;;      Temps:          6       0       0       0       0       0       0       0       0       0       0       0       
      +0       0       0       0       0
  1607 ;;      Totals:         9       0       0       0       0       0       0       0       0       0       0       0       
      +0       0       0       0       0
  1608 ;;Total ram usage:        9 bytes
  1609 ;; Hardware stack levels used: 1
  1610 ;; Hardware stack levels required when called: 4
  1611 ;; This function calls:
  1612 ;;		Nothing
  1613 ;; This function is called by:
  1614 ;;		_gpio_pin_initialize
  1615 ;;		_button_initialize
  1616 ;;		_KeyPad_Initialize
  1617 ;;		_NTERUPT_INTx_Pin_Init
  1618 ;;		_NTERUPT_RBx_Pin_Init
  1619 ;; This function uses a non-reentrant model
  1620 ;;
  1621                           
  1622                           	psect	text8
  1623   002036                     __ptext8:
  1624                           	callstack 0
  1625   002036                     _gpio_pin_direction_initialize:
  1626                           	callstack 22
  1627   002036                     
  1628                           ;MCAL_Layer/GPIO/hal_gbio.c: 22: Std_ReturnType gpio_pin_direction_initialize(const pin_
      +                          config_t *_pin_config);MCAL_Layer/GPIO/hal_gbio.c: 23: {;MCAL_Layer/GPIO/hal_gbio.c: 24:
      +                               Std_ReturnType ret = (Std_ReturnType)0x01;
  1629   002036  0E01               	movlw	1
  1630   002038  6E11               	movwf	gpio_pin_direction_initialize@ret^0,c
  1631   00203A                     
  1632                           ;MCAL_Layer/GPIO/hal_gbio.c: 25:     if(((void*)0) == _pin_config || _pin_config->pin > 
      +                          8 -1){
  1633   00203A  5009               	movf	gpio_pin_direction_initialize@_pin_config^0,w,c
  1634   00203C  100A               	iorwf	(gpio_pin_direction_initialize@_pin_config+1)^0,w,c
  1635   00203E  B4D8               	btfsc	status,2,c
  1636   002040  EF24  F010         	goto	u4241
  1637   002044  EF26  F010         	goto	u4240
  1638   002048                     u4241:
  1639   002048  EF37  F010         	goto	l5548
  1640   00204C                     u4240:
  1641   00204C  C009  FFD9         	movff	gpio_pin_direction_initialize@_pin_config,fsr2l
  1642   002050  C00A  FFDA         	movff	gpio_pin_direction_initialize@_pin_config+1,fsr2h
  1643   002054  30DF               	rrcf	223,w,c
  1644   002056  32E8               	rrcf	wreg,f,c
  1645   002058  32E8               	rrcf	wreg,f,c
  1646   00205A  0B07               	andlw	7
  1647   00205C  6E0B               	movwf	??_gpio_pin_direction_initialize^0,c
  1648   00205E  0E07               	movlw	7
  1649   002060  640B               	cpfsgt	??_gpio_pin_direction_initialize^0,c
  1650   002062  EF35  F010         	goto	u4251
  1651   002066  EF37  F010         	goto	u4250
  1652   00206A                     u4251:
  1653   00206A  EF9A  F010         	goto	l5556
  1654   00206E                     u4250:
  1655   00206E                     l5548:
  1656                           
  1657                           ;MCAL_Layer/GPIO/hal_gbio.c: 26:         ret = (Std_ReturnType)0x00;
  1658   00206E  0E00               	movlw	0
  1659   002070  6E11               	movwf	gpio_pin_direction_initialize@ret^0,c
  1660                           
  1661                           ;MCAL_Layer/GPIO/hal_gbio.c: 27:     }else{
  1662   002072  EFBB  F010         	goto	l5558
  1663   002076                     l5550:
  1664                           
  1665                           ;MCAL_Layer/GPIO/hal_gbio.c: 31:                 (*tris_registers[_pin_config->port] &= 
      +                          ~((uint8)1 << _pin_config->pin));
  1666   002076  C009  FFD9         	movff	gpio_pin_direction_initialize@_pin_config,fsr2l
  1667   00207A  C00A  FFDA         	movff	gpio_pin_direction_initialize@_pin_config+1,fsr2h
  1668   00207E  30DF               	rrcf	223,w,c
  1669   002080  32E8               	rrcf	wreg,f,c
  1670   002082  32E8               	rrcf	wreg,f,c
  1671   002084  0B07               	andlw	7
  1672   002086  6E0B               	movwf	??_gpio_pin_direction_initialize^0,c
  1673   002088  0E01               	movlw	1
  1674   00208A  6E0C               	movwf	(??_gpio_pin_direction_initialize+1)^0,c
  1675   00208C  2A0B               	incf	??_gpio_pin_direction_initialize^0,f,c
  1676   00208E  EF4B  F010         	goto	u4264
  1677   002092                     u4265:
  1678   002092  90D8               	bcf	status,0,c
  1679   002094  360C               	rlcf	(??_gpio_pin_direction_initialize+1)^0,f,c
  1680   002096                     u4264:
  1681   002096  2E0B               	decfsz	??_gpio_pin_direction_initialize^0,f,c
  1682   002098  EF49  F010         	goto	u4265
  1683   00209C  500C               	movf	(??_gpio_pin_direction_initialize+1)^0,w,c
  1684   00209E  0AFF               	xorlw	255
  1685   0020A0  6E0D               	movwf	(??_gpio_pin_direction_initialize+2)^0,c
  1686   0020A2  C009  FFD9         	movff	gpio_pin_direction_initialize@_pin_config,fsr2l
  1687   0020A6  C00A  FFDA         	movff	gpio_pin_direction_initialize@_pin_config+1,fsr2h
  1688   0020AA  50DF               	movf	223,w,c
  1689   0020AC  0B07               	andlw	7
  1690   0020AE  6E0E               	movwf	(??_gpio_pin_direction_initialize+3)^0,c
  1691   0020B0  500E               	movf	(??_gpio_pin_direction_initialize+3)^0,w,c
  1692   0020B2  0D02               	mullw	2
  1693   0020B4  0EC1               	movlw	low _tris_registers
  1694   0020B6  24F3               	addwf	243,w,c
  1695   0020B8  6ED9               	movwf	fsr2l,c
  1696   0020BA  0E00               	movlw	high _tris_registers
  1697   0020BC  20F4               	addwfc	prodh,w,c
  1698   0020BE  6EDA               	movwf	fsr2h,c
  1699   0020C0  CFDE F00F          	movff	postinc2,??_gpio_pin_direction_initialize+4
  1700   0020C4  CFDD F010          	movff	postdec2,??_gpio_pin_direction_initialize+5
  1701   0020C8  C00F  FFD9         	movff	??_gpio_pin_direction_initialize+4,fsr2l
  1702   0020CC  C010  FFDA         	movff	??_gpio_pin_direction_initialize+5,fsr2h
  1703   0020D0  500D               	movf	(??_gpio_pin_direction_initialize+2)^0,w,c
  1704   0020D2  16DF               	andwf	indf2,f,c
  1705                           
  1706                           ;MCAL_Layer/GPIO/hal_gbio.c: 32:                 break;
  1707   0020D4  EFBB  F010         	goto	l5558
  1708   0020D8                     l5552:
  1709                           
  1710                           ;MCAL_Layer/GPIO/hal_gbio.c: 34:                 (*tris_registers[_pin_config->port] |= 
      +                          ((uint8)1 << _pin_config->pin));
  1711   0020D8  C009  FFD9         	movff	gpio_pin_direction_initialize@_pin_config,fsr2l
  1712   0020DC  C00A  FFDA         	movff	gpio_pin_direction_initialize@_pin_config+1,fsr2h
  1713   0020E0  30DF               	rrcf	223,w,c
  1714   0020E2  32E8               	rrcf	wreg,f,c
  1715   0020E4  32E8               	rrcf	wreg,f,c
  1716   0020E6  0B07               	andlw	7
  1717   0020E8  6E0B               	movwf	??_gpio_pin_direction_initialize^0,c
  1718   0020EA  0E01               	movlw	1
  1719   0020EC  6E0C               	movwf	(??_gpio_pin_direction_initialize+1)^0,c
  1720   0020EE  2A0B               	incf	??_gpio_pin_direction_initialize^0,f,c
  1721   0020F0  EF7C  F010         	goto	u4274
  1722   0020F4                     u4275:
  1723   0020F4  90D8               	bcf	status,0,c
  1724   0020F6  360C               	rlcf	(??_gpio_pin_direction_initialize+1)^0,f,c
  1725   0020F8                     u4274:
  1726   0020F8  2E0B               	decfsz	??_gpio_pin_direction_initialize^0,f,c
  1727   0020FA  EF7A  F010         	goto	u4275
  1728   0020FE  C009  FFD9         	movff	gpio_pin_direction_initialize@_pin_config,fsr2l
  1729   002102  C00A  FFDA         	movff	gpio_pin_direction_initialize@_pin_config+1,fsr2h
  1730   002106  50DF               	movf	223,w,c
  1731   002108  0B07               	andlw	7
  1732   00210A  6E0D               	movwf	(??_gpio_pin_direction_initialize+2)^0,c
  1733   00210C  500D               	movf	(??_gpio_pin_direction_initialize+2)^0,w,c
  1734   00210E  0D02               	mullw	2
  1735   002110  0EC1               	movlw	low _tris_registers
  1736   002112  24F3               	addwf	243,w,c
  1737   002114  6ED9               	movwf	fsr2l,c
  1738   002116  0E00               	movlw	high _tris_registers
  1739   002118  20F4               	addwfc	prodh,w,c
  1740   00211A  6EDA               	movwf	fsr2h,c
  1741   00211C  CFDE F00E          	movff	postinc2,??_gpio_pin_direction_initialize+3
  1742   002120  CFDD F00F          	movff	postdec2,??_gpio_pin_direction_initialize+4
  1743   002124  C00E  FFD9         	movff	??_gpio_pin_direction_initialize+3,fsr2l
  1744   002128  C00F  FFDA         	movff	??_gpio_pin_direction_initialize+4,fsr2h
  1745   00212C  500C               	movf	(??_gpio_pin_direction_initialize+1)^0,w,c
  1746   00212E  12DF               	iorwf	indf2,f,c
  1747                           
  1748                           ;MCAL_Layer/GPIO/hal_gbio.c: 35:                 break;
  1749   002130  EFBB  F010         	goto	l5558
  1750   002134                     l5556:
  1751   002134  C009  FFD9         	movff	gpio_pin_direction_initialize@_pin_config,fsr2l
  1752   002138  C00A  FFDA         	movff	gpio_pin_direction_initialize@_pin_config+1,fsr2h
  1753   00213C  BCDF               	btfsc	indf2,6,c
  1754   00213E  EFA3  F010         	goto	u4281
  1755   002142  EFA6  F010         	goto	u4280
  1756   002146                     u4281:
  1757   002146  0E01               	movlw	1
  1758   002148  EFA7  F010         	goto	u4290
  1759   00214C                     u4280:
  1760   00214C  0E00               	movlw	0
  1761   00214E                     u4290:
  1762   00214E  6E0B               	movwf	??_gpio_pin_direction_initialize^0,c
  1763   002150  6A0C               	clrf	(??_gpio_pin_direction_initialize+1)^0,c
  1764                           
  1765                           ; Switch on 2 bytes has been partitioned into a top level switch of size 1, and 1 sub-sw
      +                          itches
  1766                           ; Switch size 1, requested type "simple"
  1767                           ; Number of cases is 1, Range of values is 0 to 0
  1768                           ; switch strategies available:
  1769                           ; Name         Instructions Cycles
  1770                           ; simple_byte            4     3 (average)
  1771                           ;	Chosen strategy is simple_byte
  1772   002152  500C               	movf	(??_gpio_pin_direction_initialize+1)^0,w,c
  1773   002154  0A00               	xorlw	0	; case 0
  1774   002156  B4D8               	btfsc	status,2,c
  1775   002158  EFB0  F010         	goto	l8282
  1776   00215C  EF37  F010         	goto	l5548
  1777   002160                     l8282:
  1778                           
  1779                           ; Switch size 1, requested type "simple"
  1780                           ; Number of cases is 2, Range of values is 0 to 1
  1781                           ; switch strategies available:
  1782                           ; Name         Instructions Cycles
  1783                           ; simple_byte            7     4 (average)
  1784                           ;	Chosen strategy is simple_byte
  1785   002160  500B               	movf	??_gpio_pin_direction_initialize^0,w,c
  1786   002162  0A00               	xorlw	0	; case 0
  1787   002164  B4D8               	btfsc	status,2,c
  1788   002166  EF3B  F010         	goto	l5550
  1789   00216A  0A01               	xorlw	1	; case 1
  1790   00216C  B4D8               	btfsc	status,2,c
  1791   00216E  EF6C  F010         	goto	l5552
  1792   002172  EF37  F010         	goto	l5548
  1793   002176                     l5558:
  1794                           
  1795                           ;MCAL_Layer/GPIO/hal_gbio.c: 41:     return ret;
  1796   002176  5011               	movf	gpio_pin_direction_initialize@ret^0,w,c
  1797   002178  0012               	return		;funcret
  1798   00217A                     __end_of_gpio_pin_direction_initialize:
  1799                           	callstack 0
  1800                           
  1801 ;; *************** function _MSSP_I2C_Init *****************
  1802 ;; Defined at:
  1803 ;;		line 15 in file "MCAL_Layer/I2C/hal_i2c.c"
  1804 ;; Parameters:    Size  Location     Type
  1805 ;;  i2c_obj         2    2[BANK0 ] PTR const struct .
  1806 ;;		 -> i2c_obj(13), 
  1807 ;; Auto vars:     Size  Location     Type
  1808 ;;  ret             1    6[BANK0 ] unsigned char 
  1809 ;; Return value:  Size  Location     Type
  1810 ;;                  1    wreg      unsigned char 
  1811 ;; Registers used:
  1812 ;;		wreg, fsr2l, fsr2h, status,2, status,0, cstack
  1813 ;; Tracked objects:
  1814 ;;		On entry : 0/0
  1815 ;;		On exit  : 0/0
  1816 ;;		Unchanged: 0/0
  1817 ;; Data sizes:     COMRAM   BANK0   BANK1   BANK2   BANK3   BANK4   BANK5   BANK6   BANK7   BANK8   BANK9  BANK10  BANK1
      +1  BANK12  BANK13  BANK14  BANK15
  1818 ;;      Params:         0       2       0       0       0       0       0       0       0       0       0       0       
      +0       0       0       0       0
  1819 ;;      Locals:         0       1       0       0       0       0       0       0       0       0       0       0       
      +0       0       0       0       0
  1820 ;;      Temps:          0       2       0       0       0       0       0       0       0       0       0       0       
      +0       0       0       0       0
  1821 ;;      Totals:         0       5       0       0       0       0       0       0       0       0       0       0       
      +0       0       0       0       0
  1822 ;;Total ram usage:        5 bytes
  1823 ;; Hardware stack levels used: 1
  1824 ;; Hardware stack levels required when called: 5
  1825 ;; This function calls:
  1826 ;;		_MSSP_I2C_Interrupt_Configuration
  1827 ;;		___fladd
  1828 ;;		___fldiv
  1829 ;;		___fltol
  1830 ;;		___xxtofl
  1831 ;; This function is called by:
  1832 ;;		_main
  1833 ;; This function uses a non-reentrant model
  1834 ;;
  1835                           
  1836                           	psect	text9
  1837   001CA8                     __ptext9:
  1838                           	callstack 0
  1839   001CA8                     _MSSP_I2C_Init:
  1840                           	callstack 25
  1841   001CA8                     
  1842                           ;MCAL_Layer/I2C/hal_i2c.c: 17:     if(((void*)0) == i2c_obj){
  1843   001CA8  0100               	movlb	0	; () banked
  1844   001CAA  51D6               	movf	MSSP_I2C_Init@i2c_obj& (0+255),w,b
  1845   001CAC  11D7               	iorwf	(MSSP_I2C_Init@i2c_obj+1)& (0+255),w,b
  1846   001CAE  A4D8               	btfss	status,2,c
  1847   001CB0  EF5C  F00E         	goto	u8141
  1848   001CB4  EF5E  F00E         	goto	u8140
  1849   001CB8                     u8141:
  1850   001CB8  EF62  F00E         	goto	l774
  1851   001CBC                     u8140:
  1852   001CBC                     
  1853                           ; BSR set to: 0
  1854                           ;MCAL_Layer/I2C/hal_i2c.c: 18:         ret = (Std_ReturnType)0x00;
  1855   001CBC  0E00               	movlw	0
  1856   001CBE  6FDA               	movwf	MSSP_I2C_Init@ret& (0+255),b
  1857                           
  1858                           ;MCAL_Layer/I2C/hal_i2c.c: 19:     }else{
  1859   001CC0  EF3F  F00F         	goto	l8148
  1860   001CC4                     l774:
  1861                           
  1862                           ; BSR set to: 0
  1863                           ;MCAL_Layer/I2C/hal_i2c.c: 21:         (SSPCON1bits.SSPEN = 0);
  1864   001CC4  9AC6               	bcf	198,5,c	;volatile
  1865   001CC6                     
  1866                           ; BSR set to: 0
  1867                           ;MCAL_Layer/I2C/hal_i2c.c: 23:         if(1 == i2c_obj->i2c_cfg.i2c_mode ){
  1868   001CC6  EE20 F004          	lfsr	2,4
  1869   001CCA  51D6               	movf	MSSP_I2C_Init@i2c_obj& (0+255),w,b
  1870   001CCC  26D9               	addwf	fsr2l,f,c
  1871   001CCE  51D7               	movf	(MSSP_I2C_Init@i2c_obj+1)& (0+255),w,b
  1872   001CD0  22DA               	addwfc	fsr2h,f,c
  1873   001CD2  A0DF               	btfss	indf2,0,c
  1874   001CD4  EF6E  F00E         	goto	u8151
  1875   001CD8  EF70  F00E         	goto	u8150
  1876   001CDC                     u8151:
  1877   001CDC  EFB3  F00E         	goto	l8110
  1878   001CE0                     u8150:
  1879   001CE0                     
  1880                           ; BSR set to: 0
  1881                           ;MCAL_Layer/I2C/hal_i2c.c: 25:             SSPADD = (uint8)(((8000000UL / 4.0) / i2c_obj
      +                          ->i2c_clock) - 1);
  1882   001CE0  0E00               	movlw	0
  1883   001CE2  6E34               	movwf	___fladd@a^0,c
  1884   001CE4  0E00               	movlw	0
  1885   001CE6  6E35               	movwf	(___fladd@a+1)^0,c
  1886   001CE8  0E80               	movlw	128
  1887   001CEA  6E36               	movwf	(___fladd@a+2)^0,c
  1888   001CEC  0EBF               	movlw	191
  1889   001CEE  6E37               	movwf	(___fladd@a+3)^0,c
  1890   001CF0  C0D6  FFD9         	movff	MSSP_I2C_Init@i2c_obj,fsr2l
  1891   001CF4  C0D7  FFDA         	movff	MSSP_I2C_Init@i2c_obj+1,fsr2h
  1892   001CF8  CFDE F0D8          	movff	postinc2,??_MSSP_I2C_Init
  1893   001CFC  CFDD F0D9          	movff	postdec2,??_MSSP_I2C_Init+1
  1894   001D00  C0D8  F009         	movff	??_MSSP_I2C_Init,___xxtofl@val
  1895   001D04  C0D9  F00A         	movff	??_MSSP_I2C_Init+1,___xxtofl@val+1
  1896   001D08  6A0B               	clrf	(___xxtofl@val+2)^0,c
  1897   001D0A  6A0C               	clrf	(___xxtofl@val+3)^0,c
  1898   001D0C  0E00               	movlw	0
  1899   001D0E  EC41  F00F         	call	___xxtofl
  1900   001D12  C009  F01B         	movff	?___xxtofl,___fldiv@a
  1901   001D16  C00A  F01C         	movff	?___xxtofl+1,___fldiv@a+1
  1902   001D1A  C00B  F01D         	movff	?___xxtofl+2,___fldiv@a+2
  1903   001D1E  C00C  F01E         	movff	?___xxtofl+3,___fldiv@a+3
  1904   001D22  0E00               	movlw	0
  1905   001D24  6E17               	movwf	___fldiv@b^0,c
  1906   001D26  0E24               	movlw	36
  1907   001D28  6E18               	movwf	(___fldiv@b+1)^0,c
  1908   001D2A  0EF4               	movlw	244
  1909   001D2C  6E19               	movwf	(___fldiv@b+2)^0,c
  1910   001D2E  0E49               	movlw	73
  1911   001D30  6E1A               	movwf	(___fldiv@b+3)^0,c
  1912   001D32  EC87  F00C         	call	___fldiv	;wreg free
  1913   001D36  C017  F030         	movff	?___fldiv,___fladd@b
  1914   001D3A  C018  F031         	movff	?___fldiv+1,___fladd@b+1
  1915   001D3E  C019  F032         	movff	?___fldiv+2,___fladd@b+2
  1916   001D42  C01A  F033         	movff	?___fldiv+3,___fladd@b+3
  1917   001D46  EC0B  F008         	call	___fladd	;wreg free
  1918   001D4A  C030  F040         	movff	?___fladd,___fltol@f1
  1919   001D4E  C031  F041         	movff	?___fladd+1,___fltol@f1+1
  1920   001D52  C032  F042         	movff	?___fladd+2,___fltol@f1+2
  1921   001D56  C033  F043         	movff	?___fladd+3,___fltol@f1+3
  1922   001D5A  EC53  F011         	call	___fltol	;wreg free
  1923   001D5E  5040               	movf	?___fltol^0,w,c
  1924   001D60  6EC8               	movwf	200,c	;volatile
  1925                           
  1926                           ;MCAL_Layer/I2C/hal_i2c.c: 26:         }else if(0 == i2c_obj->i2c_cfg.i2c_mode){
  1927   001D62  EFE9  F00E         	goto	l8122
  1928   001D66                     l8110:
  1929                           
  1930                           ; BSR set to: 0
  1931   001D66  EE20 F004          	lfsr	2,4
  1932   001D6A  51D6               	movf	MSSP_I2C_Init@i2c_obj& (0+255),w,b
  1933   001D6C  26D9               	addwf	fsr2l,f,c
  1934   001D6E  51D7               	movf	(MSSP_I2C_Init@i2c_obj+1)& (0+255),w,b
  1935   001D70  22DA               	addwfc	fsr2h,f,c
  1936   001D72  B0DF               	btfsc	indf2,0,c
  1937   001D74  EFBE  F00E         	goto	u8161
  1938   001D78  EFC0  F00E         	goto	u8160
  1939   001D7C                     u8161:
  1940   001D7C  EFE9  F00E         	goto	l8122
  1941   001D80                     u8160:
  1942   001D80                     
  1943                           ; BSR set to: 0
  1944                           ;MCAL_Layer/I2C/hal_i2c.c: 28:             if(1 == i2c_obj->i2c_cfg.i2c_general_call){
  1945   001D80  EE20 F004          	lfsr	2,4
  1946   001D84  51D6               	movf	MSSP_I2C_Init@i2c_obj& (0+255),w,b
  1947   001D86  26D9               	addwf	fsr2l,f,c
  1948   001D88  51D7               	movf	(MSSP_I2C_Init@i2c_obj+1)& (0+255),w,b
  1949   001D8A  22DA               	addwfc	fsr2h,f,c
  1950   001D8C  A6DF               	btfss	indf2,3,c
  1951   001D8E  EFCB  F00E         	goto	u8171
  1952   001D92  EFCD  F00E         	goto	u8170
  1953   001D96                     u8171:
  1954   001D96  EFD0  F00E         	goto	l8116
  1955   001D9A                     u8170:
  1956   001D9A                     
  1957                           ; BSR set to: 0
  1958                           ;MCAL_Layer/I2C/hal_i2c.c: 29:                 (SSPCON2bits.GCEN = 1);
  1959   001D9A  8EC5               	bsf	197,7,c	;volatile
  1960                           
  1961                           ;MCAL_Layer/I2C/hal_i2c.c: 30:             }else if(0 == i2c_obj->i2c_cfg.i2c_general_ca
      +                          ll){
  1962   001D9C  EFDE  F00E         	goto	l780
  1963   001DA0                     l8116:
  1964                           
  1965                           ; BSR set to: 0
  1966   001DA0  EE20 F004          	lfsr	2,4
  1967   001DA4  51D6               	movf	MSSP_I2C_Init@i2c_obj& (0+255),w,b
  1968   001DA6  26D9               	addwf	fsr2l,f,c
  1969   001DA8  51D7               	movf	(MSSP_I2C_Init@i2c_obj+1)& (0+255),w,b
  1970   001DAA  22DA               	addwfc	fsr2h,f,c
  1971   001DAC  B6DF               	btfsc	indf2,3,c
  1972   001DAE  EFDB  F00E         	goto	u8181
  1973   001DB2  EFDD  F00E         	goto	u8180
  1974   001DB6                     u8181:
  1975   001DB6  EFDE  F00E         	goto	l780
  1976   001DBA                     u8180:
  1977   001DBA                     
  1978                           ; BSR set to: 0
  1979                           ;MCAL_Layer/I2C/hal_i2c.c: 31:                 (SSPCON2bits.GCEN = 0);
  1980   001DBA  9EC5               	bcf	197,7,c	;volatile
  1981   001DBC                     l780:
  1982                           
  1983                           ; BSR set to: 0
  1984                           ;MCAL_Layer/I2C/hal_i2c.c: 34:             SSPCON1bits.WCOL = 0;
  1985   001DBC  9EC6               	bcf	198,7,c	;volatile
  1986                           
  1987                           ;MCAL_Layer/I2C/hal_i2c.c: 36:             SSPCON1bits.SSPOV = 0;
  1988   001DBE  9CC6               	bcf	198,6,c	;volatile
  1989                           
  1990                           ;MCAL_Layer/I2C/hal_i2c.c: 38:             SSPCON1bits.CKP = 1;
  1991   001DC0  88C6               	bsf	198,4,c	;volatile
  1992   001DC2                     
  1993                           ; BSR set to: 0
  1994                           ;MCAL_Layer/I2C/hal_i2c.c: 40:             SSPADD = i2c_obj->i2c_cfg.i2c_slave_address;
  1995   001DC2  EE20 F002          	lfsr	2,2
  1996   001DC6  51D6               	movf	MSSP_I2C_Init@i2c_obj& (0+255),w,b
  1997   001DC8  26D9               	addwf	fsr2l,f,c
  1998   001DCA  51D7               	movf	(MSSP_I2C_Init@i2c_obj+1)& (0+255),w,b
  1999   001DCC  22DA               	addwfc	fsr2h,f,c
  2000   001DCE  50DF               	movf	indf2,w,c
  2001   001DD0  6EC8               	movwf	200,c	;volatile
  2002   001DD2                     l8122:
  2003                           
  2004                           ;MCAL_Layer/I2C/hal_i2c.c: 43:         SSPCON1bits.SSPM = i2c_obj->i2c_cfg.i2c_mode_cfg;
  2005   001DD2  0100               	movlb	0	; () banked
  2006   001DD4  EE20 F003          	lfsr	2,3
  2007   001DD8  51D6               	movf	MSSP_I2C_Init@i2c_obj& (0+255),w,b
  2008   001DDA  26D9               	addwf	fsr2l,f,c
  2009   001DDC  51D7               	movf	(MSSP_I2C_Init@i2c_obj+1)& (0+255),w,b
  2010   001DDE  22DA               	addwfc	fsr2h,f,c
  2011   001DE0  50DF               	movf	indf2,w,c
  2012   001DE2  6FD8               	movwf	??_MSSP_I2C_Init& (0+255),b
  2013   001DE4  50C6               	movf	198,w,c	;volatile
  2014   001DE6  19D8               	xorwf	??_MSSP_I2C_Init& (0+255),w,b
  2015   001DE8  0BF0               	andlw	-16
  2016   001DEA  19D8               	xorwf	??_MSSP_I2C_Init& (0+255),w,b
  2017   001DEC  6EC6               	movwf	198,c	;volatile
  2018   001DEE                     
  2019                           ; BSR set to: 0
  2020                           ;MCAL_Layer/I2C/hal_i2c.c: 46:             TRISCbits.TRISC3 = 1;
  2021   001DEE  8694               	bsf	148,3,c	;volatile
  2022   001DF0                     
  2023                           ; BSR set to: 0
  2024                           ;MCAL_Layer/I2C/hal_i2c.c: 47:             TRISCbits.TRISC4 = 1;
  2025   001DF0  8894               	bsf	148,4,c	;volatile
  2026                           
  2027                           ;MCAL_Layer/I2C/hal_i2c.c: 49:         if(0 == i2c_obj->i2c_cfg.i2c_slew_rate){
  2028   001DF2  EE20 F004          	lfsr	2,4
  2029   001DF6  51D6               	movf	MSSP_I2C_Init@i2c_obj& (0+255),w,b
  2030   001DF8  26D9               	addwf	fsr2l,f,c
  2031   001DFA  51D7               	movf	(MSSP_I2C_Init@i2c_obj+1)& (0+255),w,b
  2032   001DFC  22DA               	addwfc	fsr2h,f,c
  2033   001DFE  B2DF               	btfsc	indf2,1,c
  2034   001E00  EF04  F00F         	goto	u8191
  2035   001E04  EF06  F00F         	goto	u8190
  2036   001E08                     u8191:
  2037   001E08  EF09  F00F         	goto	l8130
  2038   001E0C                     u8190:
  2039   001E0C                     
  2040                           ; BSR set to: 0
  2041                           ;MCAL_Layer/I2C/hal_i2c.c: 50:                 (SSPSTATbits.SMP = 0);
  2042   001E0C  9EC7               	bcf	199,7,c	;volatile
  2043                           
  2044                           ;MCAL_Layer/I2C/hal_i2c.c: 51:             }else if(1 == i2c_obj->i2c_cfg.i2c_slew_rate)
      +                          {
  2045   001E0E  EF17  F00F         	goto	l8134
  2046   001E12                     l8130:
  2047                           
  2048                           ; BSR set to: 0
  2049   001E12  EE20 F004          	lfsr	2,4
  2050   001E16  51D6               	movf	MSSP_I2C_Init@i2c_obj& (0+255),w,b
  2051   001E18  26D9               	addwf	fsr2l,f,c
  2052   001E1A  51D7               	movf	(MSSP_I2C_Init@i2c_obj+1)& (0+255),w,b
  2053   001E1C  22DA               	addwfc	fsr2h,f,c
  2054   001E1E  A2DF               	btfss	indf2,1,c
  2055   001E20  EF14  F00F         	goto	u8201
  2056   001E24  EF16  F00F         	goto	u8200
  2057   001E28                     u8201:
  2058   001E28  EF17  F00F         	goto	l8134
  2059   001E2C                     u8200:
  2060   001E2C                     
  2061                           ; BSR set to: 0
  2062                           ;MCAL_Layer/I2C/hal_i2c.c: 52:                 (SSPSTATbits.SMP = 1);
  2063   001E2C  8EC7               	bsf	199,7,c	;volatile
  2064   001E2E                     l8134:
  2065                           
  2066                           ; BSR set to: 0
  2067                           ;MCAL_Layer/I2C/hal_i2c.c: 55:         if(1 == i2c_obj->i2c_cfg.i2c_SMBus_control){
  2068   001E2E  EE20 F004          	lfsr	2,4
  2069   001E32  51D6               	movf	MSSP_I2C_Init@i2c_obj& (0+255),w,b
  2070   001E34  26D9               	addwf	fsr2l,f,c
  2071   001E36  51D7               	movf	(MSSP_I2C_Init@i2c_obj+1)& (0+255),w,b
  2072   001E38  22DA               	addwfc	fsr2h,f,c
  2073   001E3A  A4DF               	btfss	indf2,2,c
  2074   001E3C  EF22  F00F         	goto	u8211
  2075   001E40  EF24  F00F         	goto	u8210
  2076   001E44                     u8211:
  2077   001E44  EF27  F00F         	goto	l8138
  2078   001E48                     u8210:
  2079   001E48                     
  2080                           ; BSR set to: 0
  2081                           ;MCAL_Layer/I2C/hal_i2c.c: 56:                 (SSPSTATbits.CKE = 1);
  2082   001E48  8CC7               	bsf	199,6,c	;volatile
  2083                           
  2084                           ;MCAL_Layer/I2C/hal_i2c.c: 57:             }else if(0 == i2c_obj->i2c_cfg.i2c_SMBus_cont
      +                          rol){
  2085   001E4A  EF35  F00F         	goto	l8142
  2086   001E4E                     l8138:
  2087                           
  2088                           ; BSR set to: 0
  2089   001E4E  EE20 F004          	lfsr	2,4
  2090   001E52  51D6               	movf	MSSP_I2C_Init@i2c_obj& (0+255),w,b
  2091   001E54  26D9               	addwf	fsr2l,f,c
  2092   001E56  51D7               	movf	(MSSP_I2C_Init@i2c_obj+1)& (0+255),w,b
  2093   001E58  22DA               	addwfc	fsr2h,f,c
  2094   001E5A  B4DF               	btfsc	indf2,2,c
  2095   001E5C  EF32  F00F         	goto	u8221
  2096   001E60  EF34  F00F         	goto	u8220
  2097   001E64                     u8221:
  2098   001E64  EF35  F00F         	goto	l8142
  2099   001E68                     u8220:
  2100   001E68                     
  2101                           ; BSR set to: 0
  2102                           ;MCAL_Layer/I2C/hal_i2c.c: 58:                 (SSPSTATbits.CKE = 0);
  2103   001E68  9CC7               	bcf	199,6,c	;volatile
  2104   001E6A                     l8142:
  2105                           
  2106                           ; BSR set to: 0
  2107                           ;MCAL_Layer/I2C/hal_i2c.c: 61:         MSSP_I2C_Interrupt_Configuration(i2c_obj);
  2108   001E6A  C0D6  F009         	movff	MSSP_I2C_Init@i2c_obj,MSSP_I2C_Interrupt_Configuration@i2c_obj
  2109   001E6E  C0D7  F00A         	movff	MSSP_I2C_Init@i2c_obj+1,MSSP_I2C_Interrupt_Configuration@i2c_obj+1
  2110   001E72  EC33  F013         	call	_MSSP_I2C_Interrupt_Configuration	;wreg free
  2111   001E76                     
  2112                           ;MCAL_Layer/I2C/hal_i2c.c: 63:         (SSPCON1bits.SSPEN = 1);
  2113   001E76  8AC6               	bsf	198,5,c	;volatile
  2114   001E78                     
  2115                           ;MCAL_Layer/I2C/hal_i2c.c: 64:         ret = (Std_ReturnType)0x01;
  2116   001E78  0E01               	movlw	1
  2117   001E7A  0100               	movlb	0	; () banked
  2118   001E7C  6FDA               	movwf	MSSP_I2C_Init@ret& (0+255),b
  2119   001E7E                     l8148:
  2120                           
  2121                           ; BSR set to: 0
  2122                           ;MCAL_Layer/I2C/hal_i2c.c: 66:     return ret;
  2123   001E7E  51DA               	movf	MSSP_I2C_Init@ret& (0+255),w,b
  2124   001E80                     
  2125                           ; BSR set to: 0
  2126   001E80  0012               	return		;funcret
  2127   001E82                     __end_of_MSSP_I2C_Init:
  2128                           	callstack 0
  2129                           
  2130 ;; *************** function ___xxtofl *****************
  2131 ;; Defined at:
  2132 ;;		line 10 in file "C:\Program Files\Microchip\xc8\v2.40\pic\sources\c99\common\xxtofl.c"
  2133 ;; Parameters:    Size  Location     Type
  2134 ;;  sign            1    wreg     unsigned char 
  2135 ;;  val             4    8[COMRAM] long 
  2136 ;; Auto vars:     Size  Location     Type
  2137 ;;  sign            1   16[COMRAM] unsigned char 
  2138 ;;  arg             4   18[COMRAM] unsigned long 
  2139 ;;  exp             1   17[COMRAM] unsigned char 
  2140 ;; Return value:  Size  Location     Type
  2141 ;;                  4    8[COMRAM] unsigned char 
  2142 ;; Registers used:
  2143 ;;		wreg, status,2, status,0
  2144 ;; Tracked objects:
  2145 ;;		On entry : 0/0
  2146 ;;		On exit  : 0/0
  2147 ;;		Unchanged: 0/0
  2148 ;; Data sizes:     COMRAM   BANK0   BANK1   BANK2   BANK3   BANK4   BANK5   BANK6   BANK7   BANK8   BANK9  BANK10  BANK1
      +1  BANK12  BANK13  BANK14  BANK15
  2149 ;;      Params:         4       0       0       0       0       0       0       0       0       0       0       0       
      +0       0       0       0       0
  2150 ;;      Locals:         6       0       0       0       0       0       0       0       0       0       0       0       
      +0       0       0       0       0
  2151 ;;      Temps:          4       0       0       0       0       0       0       0       0       0       0       0       
      +0       0       0       0       0
  2152 ;;      Totals:        14       0       0       0       0       0       0       0       0       0       0       0       
      +0       0       0       0       0
  2153 ;;Total ram usage:       14 bytes
  2154 ;; Hardware stack levels used: 1
  2155 ;; Hardware stack levels required when called: 4
  2156 ;; This function calls:
  2157 ;;		Nothing
  2158 ;; This function is called by:
  2159 ;;		_MSSP_I2C_Init
  2160 ;;		_EUSART_BAUD_RATE_Calculation
  2161 ;; This function uses a non-reentrant model
  2162 ;;
  2163                           
  2164                           	psect	text10
  2165   001E82                     __ptext10:
  2166                           	callstack 0
  2167   001E82                     ___xxtofl:
  2168                           	callstack 25
  2169                           
  2170                           ; BSR set to: 0
  2171                           ;incstack = 0
  2172                           ;___xxtofl@sign stored from wreg
  2173   001E82  6E11               	movwf	___xxtofl@sign^0,c
  2174   001E84  5011               	movf	___xxtofl@sign^0,w,c
  2175   001E86  B4D8               	btfsc	status,2,c
  2176   001E88  EF48  F00F         	goto	u8041
  2177   001E8C  EF4A  F00F         	goto	u8040
  2178   001E90                     u8041:
  2179   001E90  EF6C  F00F         	goto	l2345
  2180   001E94                     u8040:
  2181   001E94  BE0C               	btfsc	(___xxtofl@val+3)^0,7,c
  2182   001E96  EF51  F00F         	goto	u8050
  2183   001E9A  EF4F  F00F         	goto	u8051
  2184   001E9E                     u8051:
  2185   001E9E  EF6C  F00F         	goto	l2345
  2186   001EA2                     u8050:
  2187   001EA2  C009  F00D         	movff	___xxtofl@val,??___xxtofl
  2188   001EA6  C00A  F00E         	movff	___xxtofl@val+1,??___xxtofl+1
  2189   001EAA  C00B  F00F         	movff	___xxtofl@val+2,??___xxtofl+2
  2190   001EAE  C00C  F010         	movff	___xxtofl@val+3,??___xxtofl+3
  2191   001EB2  1E0D               	comf	??___xxtofl^0,f,c
  2192   001EB4  1E0E               	comf	(??___xxtofl+1)^0,f,c
  2193   001EB6  1E0F               	comf	(??___xxtofl+2)^0,f,c
  2194   001EB8  1E10               	comf	(??___xxtofl+3)^0,f,c
  2195   001EBA  2A0D               	incf	??___xxtofl^0,f,c
  2196   001EBC  0E00               	movlw	0
  2197   001EBE  220E               	addwfc	(??___xxtofl+1)^0,f,c
  2198   001EC0  220F               	addwfc	(??___xxtofl+2)^0,f,c
  2199   001EC2  2210               	addwfc	(??___xxtofl+3)^0,f,c
  2200   001EC4  C00D  F013         	movff	??___xxtofl,___xxtofl@arg
  2201   001EC8  C00E  F014         	movff	??___xxtofl+1,___xxtofl@arg+1
  2202   001ECC  C00F  F015         	movff	??___xxtofl+2,___xxtofl@arg+2
  2203   001ED0  C010  F016         	movff	??___xxtofl+3,___xxtofl@arg+3
  2204   001ED4  EF74  F00F         	goto	l8060
  2205   001ED8                     l2345:
  2206   001ED8  C009  F013         	movff	___xxtofl@val,___xxtofl@arg
  2207   001EDC  C00A  F014         	movff	___xxtofl@val+1,___xxtofl@arg+1
  2208   001EE0  C00B  F015         	movff	___xxtofl@val+2,___xxtofl@arg+2
  2209   001EE4  C00C  F016         	movff	___xxtofl@val+3,___xxtofl@arg+3
  2210   001EE8                     l8060:
  2211   001EE8  5009               	movf	___xxtofl@val^0,w,c
  2212   001EEA  100A               	iorwf	(___xxtofl@val+1)^0,w,c
  2213   001EEC  100B               	iorwf	(___xxtofl@val+2)^0,w,c
  2214   001EEE  100C               	iorwf	(___xxtofl@val+3)^0,w,c
  2215   001EF0  A4D8               	btfss	status,2,c
  2216   001EF2  EF7D  F00F         	goto	u8061
  2217   001EF6  EF7F  F00F         	goto	u8060
  2218   001EFA                     u8061:
  2219   001EFA  EF89  F00F         	goto	l8066
  2220   001EFE                     u8060:
  2221   001EFE  0E00               	movlw	0
  2222   001F00  6E09               	movwf	?___xxtofl^0,c
  2223   001F02  0E00               	movlw	0
  2224   001F04  6E0A               	movwf	(?___xxtofl+1)^0,c
  2225   001F06  0E00               	movlw	0
  2226   001F08  6E0B               	movwf	(?___xxtofl+2)^0,c
  2227   001F0A  0E00               	movlw	0
  2228   001F0C  6E0C               	movwf	(?___xxtofl+3)^0,c
  2229   001F0E  EF1A  F010         	goto	l2348
  2230   001F12                     l8066:
  2231   001F12  0E96               	movlw	150
  2232   001F14  6E12               	movwf	___xxtofl@exp^0,c
  2233   001F16  EF93  F00F         	goto	l8070
  2234   001F1A                     l8068:
  2235   001F1A  2A12               	incf	___xxtofl@exp^0,f,c
  2236   001F1C  90D8               	bcf	status,0,c
  2237   001F1E  3216               	rrcf	(___xxtofl@arg+3)^0,f,c
  2238   001F20  3215               	rrcf	(___xxtofl@arg+2)^0,f,c
  2239   001F22  3214               	rrcf	(___xxtofl@arg+1)^0,f,c
  2240   001F24  3213               	rrcf	___xxtofl@arg^0,f,c
  2241   001F26                     l8070:
  2242   001F26  0E00               	movlw	0
  2243   001F28  1413               	andwf	___xxtofl@arg^0,w,c
  2244   001F2A  6E0D               	movwf	??___xxtofl^0,c
  2245   001F2C  0E00               	movlw	0
  2246   001F2E  1414               	andwf	(___xxtofl@arg+1)^0,w,c
  2247   001F30  6E0E               	movwf	(??___xxtofl+1)^0,c
  2248   001F32  0E00               	movlw	0
  2249   001F34  1415               	andwf	(___xxtofl@arg+2)^0,w,c
  2250   001F36  6E0F               	movwf	(??___xxtofl+2)^0,c
  2251   001F38  0EFE               	movlw	254
  2252   001F3A  1416               	andwf	(___xxtofl@arg+3)^0,w,c
  2253   001F3C  6E10               	movwf	(??___xxtofl+3)^0,c
  2254   001F3E  500D               	movf	??___xxtofl^0,w,c
  2255   001F40  100E               	iorwf	(??___xxtofl+1)^0,w,c
  2256   001F42  100F               	iorwf	(??___xxtofl+2)^0,w,c
  2257   001F44  1010               	iorwf	(??___xxtofl+3)^0,w,c
  2258   001F46  A4D8               	btfss	status,2,c
  2259   001F48  EFA8  F00F         	goto	u8071
  2260   001F4C  EFAA  F00F         	goto	u8070
  2261   001F50                     u8071:
  2262   001F50  EF8D  F00F         	goto	l8068
  2263   001F54                     u8070:
  2264   001F54  EFB8  F00F         	goto	l2352
  2265   001F58                     l8072:
  2266   001F58  2A12               	incf	___xxtofl@exp^0,f,c
  2267   001F5A  0E01               	movlw	1
  2268   001F5C  2613               	addwf	___xxtofl@arg^0,f,c
  2269   001F5E  0E00               	movlw	0
  2270   001F60  2214               	addwfc	(___xxtofl@arg+1)^0,f,c
  2271   001F62  2215               	addwfc	(___xxtofl@arg+2)^0,f,c
  2272   001F64  2216               	addwfc	(___xxtofl@arg+3)^0,f,c
  2273   001F66  90D8               	bcf	status,0,c
  2274   001F68  3216               	rrcf	(___xxtofl@arg+3)^0,f,c
  2275   001F6A  3215               	rrcf	(___xxtofl@arg+2)^0,f,c
  2276   001F6C  3214               	rrcf	(___xxtofl@arg+1)^0,f,c
  2277   001F6E  3213               	rrcf	___xxtofl@arg^0,f,c
  2278   001F70                     l2352:
  2279   001F70  0E00               	movlw	0
  2280   001F72  1413               	andwf	___xxtofl@arg^0,w,c
  2281   001F74  6E0D               	movwf	??___xxtofl^0,c
  2282   001F76  0E00               	movlw	0
  2283   001F78  1414               	andwf	(___xxtofl@arg+1)^0,w,c
  2284   001F7A  6E0E               	movwf	(??___xxtofl+1)^0,c
  2285   001F7C  0E00               	movlw	0
  2286   001F7E  1415               	andwf	(___xxtofl@arg+2)^0,w,c
  2287   001F80  6E0F               	movwf	(??___xxtofl+2)^0,c
  2288   001F82  0EFF               	movlw	255
  2289   001F84  1416               	andwf	(___xxtofl@arg+3)^0,w,c
  2290   001F86  6E10               	movwf	(??___xxtofl+3)^0,c
  2291   001F88  500D               	movf	??___xxtofl^0,w,c
  2292   001F8A  100E               	iorwf	(??___xxtofl+1)^0,w,c
  2293   001F8C  100F               	iorwf	(??___xxtofl+2)^0,w,c
  2294   001F8E  1010               	iorwf	(??___xxtofl+3)^0,w,c
  2295   001F90  A4D8               	btfss	status,2,c
  2296   001F92  EFCD  F00F         	goto	u8081
  2297   001F96  EFCF  F00F         	goto	u8080
  2298   001F9A                     u8081:
  2299   001F9A  EFAC  F00F         	goto	l8072
  2300   001F9E                     u8080:
  2301   001F9E  EFD7  F00F         	goto	l8080
  2302   001FA2                     l8078:
  2303   001FA2  0612               	decf	___xxtofl@exp^0,f,c
  2304   001FA4  90D8               	bcf	status,0,c
  2305   001FA6  3613               	rlcf	___xxtofl@arg^0,f,c
  2306   001FA8  3614               	rlcf	(___xxtofl@arg+1)^0,f,c
  2307   001FAA  3615               	rlcf	(___xxtofl@arg+2)^0,f,c
  2308   001FAC  3616               	rlcf	(___xxtofl@arg+3)^0,f,c
  2309   001FAE                     l8080:
  2310   001FAE  BE15               	btfsc	(___xxtofl@arg+2)^0,7,c
  2311   001FB0  EFDC  F00F         	goto	u8091
  2312   001FB4  EFDE  F00F         	goto	u8090
  2313   001FB8                     u8091:
  2314   001FB8  EFE6  F00F         	goto	l2359
  2315   001FBC                     u8090:
  2316   001FBC  0E02               	movlw	2
  2317   001FBE  6012               	cpfslt	___xxtofl@exp^0,c
  2318   001FC0  EFE4  F00F         	goto	u8101
  2319   001FC4  EFE6  F00F         	goto	u8100
  2320   001FC8                     u8101:
  2321   001FC8  EFD1  F00F         	goto	l8078
  2322   001FCC                     u8100:
  2323   001FCC                     l2359:
  2324   001FCC  B012               	btfsc	___xxtofl@exp^0,0,c
  2325   001FCE  EFEB  F00F         	goto	u8111
  2326   001FD2  EFED  F00F         	goto	u8110
  2327   001FD6                     u8111:
  2328   001FD6  EFEE  F00F         	goto	l8086
  2329   001FDA                     u8110:
  2330   001FDA  9E15               	bcf	(___xxtofl@arg+2)^0,7,c
  2331   001FDC                     l8086:
  2332   001FDC  90D8               	bcf	status,0,c
  2333   001FDE  3212               	rrcf	___xxtofl@exp^0,f,c
  2334   001FE0  C012  F00D         	movff	___xxtofl@exp,??___xxtofl
  2335   001FE4  6A0E               	clrf	(??___xxtofl+1)^0,c
  2336   001FE6  6A0F               	clrf	(??___xxtofl+2)^0,c
  2337   001FE8  6A10               	clrf	(??___xxtofl+3)^0,c
  2338   001FEA  C00D  F010         	movff	??___xxtofl,??___xxtofl+3
  2339   001FEE  6A0F               	clrf	(??___xxtofl+2)^0,c
  2340   001FF0  6A0E               	clrf	(??___xxtofl+1)^0,c
  2341   001FF2  6A0D               	clrf	??___xxtofl^0,c
  2342   001FF4  500D               	movf	??___xxtofl^0,w,c
  2343   001FF6  1213               	iorwf	___xxtofl@arg^0,f,c
  2344   001FF8  500E               	movf	(??___xxtofl+1)^0,w,c
  2345   001FFA  1214               	iorwf	(___xxtofl@arg+1)^0,f,c
  2346   001FFC  500F               	movf	(??___xxtofl+2)^0,w,c
  2347   001FFE  1215               	iorwf	(___xxtofl@arg+2)^0,f,c
  2348   002000  5010               	movf	(??___xxtofl+3)^0,w,c
  2349   002002  1216               	iorwf	(___xxtofl@arg+3)^0,f,c
  2350   002004  5011               	movf	___xxtofl@sign^0,w,c
  2351   002006  B4D8               	btfsc	status,2,c
  2352   002008  EF08  F010         	goto	u8121
  2353   00200C  EF0A  F010         	goto	u8120
  2354   002010                     u8121:
  2355   002010  EF12  F010         	goto	l8096
  2356   002014                     u8120:
  2357   002014  BE0C               	btfsc	(___xxtofl@val+3)^0,7,c
  2358   002016  EF11  F010         	goto	u8130
  2359   00201A  EF0F  F010         	goto	u8131
  2360   00201E                     u8131:
  2361   00201E  EF12  F010         	goto	l8096
  2362   002022                     u8130:
  2363   002022  8E16               	bsf	(___xxtofl@arg+3)^0,7,c
  2364   002024                     l8096:
  2365   002024  C013  F009         	movff	___xxtofl@arg,?___xxtofl
  2366   002028  C014  F00A         	movff	___xxtofl@arg+1,?___xxtofl+1
  2367   00202C  C015  F00B         	movff	___xxtofl@arg+2,?___xxtofl+2
  2368   002030  C016  F00C         	movff	___xxtofl@arg+3,?___xxtofl+3
  2369   002034                     l2348:
  2370   002034  0012               	return		;funcret
  2371   002036                     __end_of___xxtofl:
  2372                           	callstack 0
  2373                           
  2374 ;; *************** function ___fltol *****************
  2375 ;; Defined at:
  2376 ;;		line 43 in file "C:\Program Files\Microchip\xc8\v2.40\pic\sources\c99\common\fltol.c"
  2377 ;; Parameters:    Size  Location     Type
  2378 ;;  f1              4   63[COMRAM] unsigned char 
  2379 ;; Auto vars:     Size  Location     Type
  2380 ;;  exp1            1    1[BANK0 ] unsigned char 
  2381 ;;  sign1           1    0[BANK0 ] unsigned char 
  2382 ;; Return value:  Size  Location     Type
  2383 ;;                  4   63[COMRAM] long 
  2384 ;; Registers used:
  2385 ;;		wreg, status,2, status,0
  2386 ;; Tracked objects:
  2387 ;;		On entry : 0/0
  2388 ;;		On exit  : 0/0
  2389 ;;		Unchanged: 0/0
  2390 ;; Data sizes:     COMRAM   BANK0   BANK1   BANK2   BANK3   BANK4   BANK5   BANK6   BANK7   BANK8   BANK9  BANK10  BANK1
      +1  BANK12  BANK13  BANK14  BANK15
  2391 ;;      Params:         4       0       0       0       0       0       0       0       0       0       0       0       
      +0       0       0       0       0
  2392 ;;      Locals:         0       2       0       0       0       0       0       0       0       0       0       0       
      +0       0       0       0       0
  2393 ;;      Temps:          4       0       0       0       0       0       0       0       0       0       0       0       
      +0       0       0       0       0
  2394 ;;      Totals:         8       2       0       0       0       0       0       0       0       0       0       0       
      +0       0       0       0       0
  2395 ;;Total ram usage:       10 bytes
  2396 ;; Hardware stack levels used: 1
  2397 ;; Hardware stack levels required when called: 4
  2398 ;; This function calls:
  2399 ;;		Nothing
  2400 ;; This function is called by:
  2401 ;;		_MSSP_I2C_Init
  2402 ;;		_EUSART_BAUD_RATE_Calculation
  2403 ;; This function uses a non-reentrant model
  2404 ;;
  2405                           
  2406                           	psect	text11
  2407   0022A6                     __ptext11:
  2408                           	callstack 0
  2409   0022A6                     ___fltol:
  2410                           	callstack 25
  2411   0022A6  3442               	rlcf	(___fltol@f1+2)^0,w,c
  2412   0022A8  3443               	rlcf	(___fltol@f1+3)^0,w,c
  2413   0022AA  0100               	movlb	0	; () banked
  2414   0022AC  6FD5               	movwf	___fltol@exp1& (0+255),b
  2415   0022AE  51D5               	movf	___fltol@exp1& (0+255),w,b
  2416   0022B0  A4D8               	btfss	status,2,c
  2417   0022B2  EF5D  F011         	goto	u7971
  2418   0022B6  EF5F  F011         	goto	u7970
  2419   0022BA                     u7971:
  2420   0022BA  EF69  F011         	goto	l8016
  2421   0022BE                     u7970:
  2422   0022BE                     l8012:
  2423                           
  2424                           ; BSR set to: 0
  2425   0022BE  0E00               	movlw	0
  2426   0022C0  6E40               	movwf	?___fltol^0,c
  2427   0022C2  0E00               	movlw	0
  2428   0022C4  6E41               	movwf	(?___fltol+1)^0,c
  2429   0022C6  0E00               	movlw	0
  2430   0022C8  6E42               	movwf	(?___fltol+2)^0,c
  2431   0022CA  0E00               	movlw	0
  2432   0022CC  6E43               	movwf	(?___fltol+3)^0,c
  2433   0022CE  EFD6  F011         	goto	l1987
  2434   0022D2                     l8016:
  2435                           
  2436                           ; BSR set to: 0
  2437   0022D2  C040  F044         	movff	___fltol@f1,??___fltol
  2438   0022D6  C041  F045         	movff	___fltol@f1+1,??___fltol+1
  2439   0022DA  C042  F046         	movff	___fltol@f1+2,??___fltol+2
  2440   0022DE  C043  F047         	movff	___fltol@f1+3,??___fltol+3
  2441   0022E2  0E20               	movlw	32
  2442   0022E4  EF79  F011         	goto	u7980
  2443   0022E8                     u7985:
  2444   0022E8  90D8               	bcf	status,0,c
  2445   0022EA  3247               	rrcf	(??___fltol+3)^0,f,c
  2446   0022EC  3246               	rrcf	(??___fltol+2)^0,f,c
  2447   0022EE  3245               	rrcf	(??___fltol+1)^0,f,c
  2448   0022F0  3244               	rrcf	??___fltol^0,f,c
  2449   0022F2                     u7980:
  2450   0022F2  2EE8               	decfsz	wreg,f,c
  2451   0022F4  EF74  F011         	goto	u7985
  2452   0022F8  5044               	movf	??___fltol^0,w,c
  2453   0022FA  6FD4               	movwf	___fltol@sign1& (0+255),b
  2454   0022FC                     
  2455                           ; BSR set to: 0
  2456   0022FC  8E42               	bsf	(___fltol@f1+2)^0,7,c
  2457   0022FE                     
  2458                           ; BSR set to: 0
  2459   0022FE  0EFF               	movlw	255
  2460   002300  1640               	andwf	___fltol@f1^0,f,c
  2461   002302  0EFF               	movlw	255
  2462   002304  1641               	andwf	(___fltol@f1+1)^0,f,c
  2463   002306  0EFF               	movlw	255
  2464   002308  1642               	andwf	(___fltol@f1+2)^0,f,c
  2465   00230A  0E00               	movlw	0
  2466   00230C  1643               	andwf	(___fltol@f1+3)^0,f,c
  2467   00230E                     
  2468                           ; BSR set to: 0
  2469   00230E  0E96               	movlw	150
  2470   002310  5FD5               	subwf	___fltol@exp1& (0+255),f,b
  2471   002312                     
  2472                           ; BSR set to: 0
  2473   002312  BFD5               	btfsc	___fltol@exp1& (0+255),7,b
  2474   002314  EF90  F011         	goto	u7990
  2475   002318  EF8E  F011         	goto	u7991
  2476   00231C                     u7991:
  2477   00231C  EFA6  F011         	goto	l8036
  2478   002320                     u7990:
  2479   002320                     
  2480                           ; BSR set to: 0
  2481   002320  51D5               	movf	___fltol@exp1& (0+255),w,b
  2482   002322  0A80               	xorlw	128
  2483   002324  0F97               	addlw	151
  2484   002326  B0D8               	btfsc	status,0,c
  2485   002328  EF98  F011         	goto	u8001
  2486   00232C  EF9A  F011         	goto	u8000
  2487   002330                     u8001:
  2488   002330  EF9C  F011         	goto	l8032
  2489   002334                     u8000:
  2490   002334  EF5F  F011         	goto	l8012
  2491   002338                     l8032:
  2492                           
  2493                           ; BSR set to: 0
  2494   002338  90D8               	bcf	status,0,c
  2495   00233A  3243               	rrcf	(___fltol@f1+3)^0,f,c
  2496   00233C  3242               	rrcf	(___fltol@f1+2)^0,f,c
  2497   00233E  3241               	rrcf	(___fltol@f1+1)^0,f,c
  2498   002340  3240               	rrcf	___fltol@f1^0,f,c
  2499   002342                     
  2500                           ; BSR set to: 0
  2501   002342  3FD5               	incfsz	___fltol@exp1& (0+255),f,b
  2502   002344  EF9C  F011         	goto	l8032
  2503   002348  EFBE  F011         	goto	l8046
  2504   00234C                     l8036:
  2505                           
  2506                           ; BSR set to: 0
  2507   00234C  0E1F               	movlw	31
  2508   00234E  65D5               	cpfsgt	___fltol@exp1& (0+255),b
  2509   002350  EFAC  F011         	goto	u8011
  2510   002354  EFAE  F011         	goto	u8010
  2511   002358                     u8011:
  2512   002358  EFB6  F011         	goto	l8044
  2513   00235C                     u8010:
  2514   00235C  EF5F  F011         	goto	l8012
  2515   002360                     l8042:
  2516                           
  2517                           ; BSR set to: 0
  2518   002360  90D8               	bcf	status,0,c
  2519   002362  3640               	rlcf	___fltol@f1^0,f,c
  2520   002364  3641               	rlcf	(___fltol@f1+1)^0,f,c
  2521   002366  3642               	rlcf	(___fltol@f1+2)^0,f,c
  2522   002368  3643               	rlcf	(___fltol@f1+3)^0,f,c
  2523   00236A  07D5               	decf	___fltol@exp1& (0+255),f,b
  2524   00236C                     l8044:
  2525                           
  2526                           ; BSR set to: 0
  2527   00236C  51D5               	movf	___fltol@exp1& (0+255),w,b
  2528   00236E  A4D8               	btfss	status,2,c
  2529   002370  EFBC  F011         	goto	u8021
  2530   002374  EFBE  F011         	goto	u8020
  2531   002378                     u8021:
  2532   002378  EFB0  F011         	goto	l8042
  2533   00237C                     u8020:
  2534   00237C                     l8046:
  2535                           
  2536                           ; BSR set to: 0
  2537   00237C  51D4               	movf	___fltol@sign1& (0+255),w,b
  2538   00237E  B4D8               	btfsc	status,2,c
  2539   002380  EFC4  F011         	goto	u8031
  2540   002384  EFC6  F011         	goto	u8030
  2541   002388                     u8031:
  2542   002388  EFCE  F011         	goto	l8050
  2543   00238C                     u8030:
  2544   00238C                     
  2545                           ; BSR set to: 0
  2546   00238C  1E43               	comf	(___fltol@f1+3)^0,f,c
  2547   00238E  1E42               	comf	(___fltol@f1+2)^0,f,c
  2548   002390  1E41               	comf	(___fltol@f1+1)^0,f,c
  2549   002392  6C40               	negf	___fltol@f1^0,c
  2550   002394  0E00               	movlw	0
  2551   002396  2241               	addwfc	(___fltol@f1+1)^0,f,c
  2552   002398  2242               	addwfc	(___fltol@f1+2)^0,f,c
  2553   00239A  2243               	addwfc	(___fltol@f1+3)^0,f,c
  2554   00239C                     l8050:
  2555                           
  2556                           ; BSR set to: 0
  2557   00239C  C040  F040         	movff	___fltol@f1,?___fltol
  2558   0023A0  C041  F041         	movff	___fltol@f1+1,?___fltol+1
  2559   0023A4  C042  F042         	movff	___fltol@f1+2,?___fltol+2
  2560   0023A8  C043  F043         	movff	___fltol@f1+3,?___fltol+3
  2561   0023AC                     l1987:
  2562                           
  2563                           ; BSR set to: 0
  2564   0023AC  0012               	return		;funcret
  2565   0023AE                     __end_of___fltol:
  2566                           	callstack 0
  2567                           
  2568 ;; *************** function ___fldiv *****************
  2569 ;; Defined at:
  2570 ;;		line 11 in file "C:\Program Files\Microchip\xc8\v2.40\pic\sources\c99\common\sprcdiv.c"
  2571 ;; Parameters:    Size  Location     Type
  2572 ;;  b               4   22[COMRAM] long 
  2573 ;;  a               4   26[COMRAM] long 
  2574 ;; Auto vars:     Size  Location     Type
  2575 ;;  grs             4   41[COMRAM] unsigned long 
  2576 ;;  rem             4   34[COMRAM] unsigned long 
  2577 ;;  new_exp         2   39[COMRAM] short 
  2578 ;;  aexp            1   46[COMRAM] unsigned char 
  2579 ;;  bexp            1   45[COMRAM] unsigned char 
  2580 ;;  sign            1   38[COMRAM] unsigned char 
  2581 ;; Return value:  Size  Location     Type
  2582 ;;                  4   22[COMRAM] unsigned char 
  2583 ;; Registers used:
  2584 ;;		wreg, status,2, status,0
  2585 ;; Tracked objects:
  2586 ;;		On entry : 0/0
  2587 ;;		On exit  : 0/0
  2588 ;;		Unchanged: 0/0
  2589 ;; Data sizes:     COMRAM   BANK0   BANK1   BANK2   BANK3   BANK4   BANK5   BANK6   BANK7   BANK8   BANK9  BANK10  BANK1
      +1  BANK12  BANK13  BANK14  BANK15
  2590 ;;      Params:         8       0       0       0       0       0       0       0       0       0       0       0       
      +0       0       0       0       0
  2591 ;;      Locals:        13       0       0       0       0       0       0       0       0       0       0       0       
      +0       0       0       0       0
  2592 ;;      Temps:          4       0       0       0       0       0       0       0       0       0       0       0       
      +0       0       0       0       0
  2593 ;;      Totals:        25       0       0       0       0       0       0       0       0       0       0       0       
      +0       0       0       0       0
  2594 ;;Total ram usage:       25 bytes
  2595 ;; Hardware stack levels used: 1
  2596 ;; Hardware stack levels required when called: 4
  2597 ;; This function calls:
  2598 ;;		Nothing
  2599 ;; This function is called by:
  2600 ;;		_MSSP_I2C_Init
  2601 ;;		_EUSART_BAUD_RATE_Calculation
  2602 ;; This function uses a non-reentrant model
  2603 ;;
  2604                           
  2605                           	psect	text12
  2606   00190E                     __ptext12:
  2607                           	callstack 0
  2608   00190E                     ___fldiv:
  2609                           	callstack 25
  2610   00190E  501A               	movf	(___fldiv@b+3)^0,w,c
  2611   001910  0B80               	andlw	128
  2612   001912  6E27               	movwf	___fldiv@sign^0,c
  2613   001914  501A               	movf	(___fldiv@b+3)^0,w,c
  2614   001916  241A               	addwf	(___fldiv@b+3)^0,w,c
  2615   001918  6E2E               	movwf	___fldiv@bexp^0,c
  2616   00191A  AE19               	btfss	(___fldiv@b+2)^0,7,c
  2617   00191C  EF92  F00C         	goto	u7741
  2618   001920  EF94  F00C         	goto	u7740
  2619   001924                     u7741:
  2620   001924  EF95  F00C         	goto	l7878
  2621   001928                     u7740:
  2622   001928  802E               	bsf	___fldiv@bexp^0,0,c
  2623   00192A                     l7878:
  2624   00192A  502E               	movf	___fldiv@bexp^0,w,c
  2625   00192C  B4D8               	btfsc	status,2,c
  2626   00192E  EF9B  F00C         	goto	u7751
  2627   001932  EF9D  F00C         	goto	u7750
  2628   001936                     u7751:
  2629   001936  EFB2  F00C         	goto	l7888
  2630   00193A                     u7750:
  2631   00193A  282E               	incf	___fldiv@bexp^0,w,c
  2632   00193C  A4D8               	btfss	status,2,c
  2633   00193E  EFA3  F00C         	goto	u7761
  2634   001942  EFA5  F00C         	goto	u7760
  2635   001946                     u7761:
  2636   001946  EFAD  F00C         	goto	l7884
  2637   00194A                     u7760:
  2638   00194A  0E00               	movlw	0
  2639   00194C  6E17               	movwf	___fldiv@b^0,c
  2640   00194E  0E00               	movlw	0
  2641   001950  6E18               	movwf	(___fldiv@b+1)^0,c
  2642   001952  0E00               	movlw	0
  2643   001954  6E19               	movwf	(___fldiv@b+2)^0,c
  2644   001956  0E00               	movlw	0
  2645   001958  6E1A               	movwf	(___fldiv@b+3)^0,c
  2646   00195A                     l7884:
  2647   00195A  8E19               	bsf	(___fldiv@b+2)^0,7,c
  2648   00195C  0E00               	movlw	0
  2649   00195E  6E1A               	movwf	(___fldiv@b+3)^0,c
  2650   001960  EFBA  F00C         	goto	l7890
  2651   001964                     l7888:
  2652   001964  0E00               	movlw	0
  2653   001966  6E17               	movwf	___fldiv@b^0,c
  2654   001968  0E00               	movlw	0
  2655   00196A  6E18               	movwf	(___fldiv@b+1)^0,c
  2656   00196C  0E00               	movlw	0
  2657   00196E  6E19               	movwf	(___fldiv@b+2)^0,c
  2658   001970  0E00               	movlw	0
  2659   001972  6E1A               	movwf	(___fldiv@b+3)^0,c
  2660   001974                     l7890:
  2661   001974  501E               	movf	(___fldiv@a+3)^0,w,c
  2662   001976  0B80               	andlw	128
  2663   001978  1A27               	xorwf	___fldiv@sign^0,f,c
  2664   00197A  501E               	movf	(___fldiv@a+3)^0,w,c
  2665   00197C  241E               	addwf	(___fldiv@a+3)^0,w,c
  2666   00197E  6E2F               	movwf	___fldiv@aexp^0,c
  2667   001980  AE1D               	btfss	(___fldiv@a+2)^0,7,c
  2668   001982  EFC5  F00C         	goto	u7771
  2669   001986  EFC7  F00C         	goto	u7770
  2670   00198A                     u7771:
  2671   00198A  EFC8  F00C         	goto	l7898
  2672   00198E                     u7770:
  2673   00198E  802F               	bsf	___fldiv@aexp^0,0,c
  2674   001990                     l7898:
  2675   001990  502F               	movf	___fldiv@aexp^0,w,c
  2676   001992  B4D8               	btfsc	status,2,c
  2677   001994  EFCE  F00C         	goto	u7781
  2678   001998  EFD0  F00C         	goto	u7780
  2679   00199C                     u7781:
  2680   00199C  EFE5  F00C         	goto	l7908
  2681   0019A0                     u7780:
  2682   0019A0  282F               	incf	___fldiv@aexp^0,w,c
  2683   0019A2  A4D8               	btfss	status,2,c
  2684   0019A4  EFD6  F00C         	goto	u7791
  2685   0019A8  EFD8  F00C         	goto	u7790
  2686   0019AC                     u7791:
  2687   0019AC  EFE0  F00C         	goto	l7904
  2688   0019B0                     u7790:
  2689   0019B0  0E00               	movlw	0
  2690   0019B2  6E1B               	movwf	___fldiv@a^0,c
  2691   0019B4  0E00               	movlw	0
  2692   0019B6  6E1C               	movwf	(___fldiv@a+1)^0,c
  2693   0019B8  0E00               	movlw	0
  2694   0019BA  6E1D               	movwf	(___fldiv@a+2)^0,c
  2695   0019BC  0E00               	movlw	0
  2696   0019BE  6E1E               	movwf	(___fldiv@a+3)^0,c
  2697   0019C0                     l7904:
  2698   0019C0  8E1D               	bsf	(___fldiv@a+2)^0,7,c
  2699   0019C2  0E00               	movlw	0
  2700   0019C4  6E1E               	movwf	(___fldiv@a+3)^0,c
  2701   0019C6  EFED  F00C         	goto	l7910
  2702   0019CA                     l7908:
  2703   0019CA  0E00               	movlw	0
  2704   0019CC  6E1B               	movwf	___fldiv@a^0,c
  2705   0019CE  0E00               	movlw	0
  2706   0019D0  6E1C               	movwf	(___fldiv@a+1)^0,c
  2707   0019D2  0E00               	movlw	0
  2708   0019D4  6E1D               	movwf	(___fldiv@a+2)^0,c
  2709   0019D6  0E00               	movlw	0
  2710   0019D8  6E1E               	movwf	(___fldiv@a+3)^0,c
  2711   0019DA                     l7910:
  2712   0019DA  501B               	movf	___fldiv@a^0,w,c
  2713   0019DC  101C               	iorwf	(___fldiv@a+1)^0,w,c
  2714   0019DE  101D               	iorwf	(___fldiv@a+2)^0,w,c
  2715   0019E0  101E               	iorwf	(___fldiv@a+3)^0,w,c
  2716   0019E2  A4D8               	btfss	status,2,c
  2717   0019E4  EFF6  F00C         	goto	u7801
  2718   0019E8  EFF8  F00C         	goto	u7800
  2719   0019EC                     u7801:
  2720   0019EC  EF10  F00D         	goto	l7922
  2721   0019F0                     u7800:
  2722   0019F0  0E00               	movlw	0
  2723   0019F2  6E17               	movwf	___fldiv@b^0,c
  2724   0019F4  0E00               	movlw	0
  2725   0019F6  6E18               	movwf	(___fldiv@b+1)^0,c
  2726   0019F8  0E00               	movlw	0
  2727   0019FA  6E19               	movwf	(___fldiv@b+2)^0,c
  2728   0019FC  0E00               	movlw	0
  2729   0019FE  6E1A               	movwf	(___fldiv@b+3)^0,c
  2730   001A00  0E80               	movlw	128
  2731   001A02  1219               	iorwf	(___fldiv@b+2)^0,f,c
  2732   001A04  0E7F               	movlw	127
  2733   001A06  121A               	iorwf	(___fldiv@b+3)^0,f,c
  2734   001A08                     l7916:
  2735   001A08  5027               	movf	___fldiv@sign^0,w,c
  2736   001A0A  121A               	iorwf	(___fldiv@b+3)^0,f,c
  2737   001A0C  C017  F017         	movff	___fldiv@b,?___fldiv
  2738   001A10  C018  F018         	movff	___fldiv@b+1,?___fldiv+1
  2739   001A14  C019  F019         	movff	___fldiv@b+2,?___fldiv+2
  2740   001A18  C01A  F01A         	movff	___fldiv@b+3,?___fldiv+3
  2741   001A1C  EF53  F00E         	goto	l2272
  2742   001A20                     l7922:
  2743   001A20  502E               	movf	___fldiv@bexp^0,w,c
  2744   001A22  A4D8               	btfss	status,2,c
  2745   001A24  EF16  F00D         	goto	u7811
  2746   001A28  EF18  F00D         	goto	u7810
  2747   001A2C                     u7811:
  2748   001A2C  EF22  F00D         	goto	l7930
  2749   001A30                     u7810:
  2750   001A30  0E00               	movlw	0
  2751   001A32  6E17               	movwf	?___fldiv^0,c
  2752   001A34  0E00               	movlw	0
  2753   001A36  6E18               	movwf	(?___fldiv+1)^0,c
  2754   001A38  0E00               	movlw	0
  2755   001A3A  6E19               	movwf	(?___fldiv+2)^0,c
  2756   001A3C  0E00               	movlw	0
  2757   001A3E  6E1A               	movwf	(?___fldiv+3)^0,c
  2758   001A40  EF53  F00E         	goto	l2272
  2759   001A44                     l7930:
  2760   001A44  502F               	movf	___fldiv@aexp^0,w,c
  2761   001A46  C02E  F01F         	movff	___fldiv@bexp,??___fldiv
  2762   001A4A  6A20               	clrf	(??___fldiv+1)^0,c
  2763   001A4C  5E1F               	subwf	??___fldiv^0,f,c
  2764   001A4E  0E00               	movlw	0
  2765   001A50  5A20               	subwfb	(??___fldiv+1)^0,f,c
  2766   001A52  0E7F               	movlw	127
  2767   001A54  241F               	addwf	??___fldiv^0,w,c
  2768   001A56  6E28               	movwf	___fldiv@new_exp^0,c
  2769   001A58  0E00               	movlw	0
  2770   001A5A  2020               	addwfc	(??___fldiv+1)^0,w,c
  2771   001A5C  6E29               	movwf	(___fldiv@new_exp+1)^0,c
  2772   001A5E  C017  F023         	movff	___fldiv@b,___fldiv@rem
  2773   001A62  C018  F024         	movff	___fldiv@b+1,___fldiv@rem+1
  2774   001A66  C019  F025         	movff	___fldiv@b+2,___fldiv@rem+2
  2775   001A6A  C01A  F026         	movff	___fldiv@b+3,___fldiv@rem+3
  2776   001A6E  0E00               	movlw	0
  2777   001A70  6E17               	movwf	___fldiv@b^0,c
  2778   001A72  0E00               	movlw	0
  2779   001A74  6E18               	movwf	(___fldiv@b+1)^0,c
  2780   001A76  0E00               	movlw	0
  2781   001A78  6E19               	movwf	(___fldiv@b+2)^0,c
  2782   001A7A  0E00               	movlw	0
  2783   001A7C  6E1A               	movwf	(___fldiv@b+3)^0,c
  2784   001A7E  0E00               	movlw	0
  2785   001A80  6E2A               	movwf	___fldiv@grs^0,c
  2786   001A82  0E00               	movlw	0
  2787   001A84  6E2B               	movwf	(___fldiv@grs+1)^0,c
  2788   001A86  0E00               	movlw	0
  2789   001A88  6E2C               	movwf	(___fldiv@grs+2)^0,c
  2790   001A8A  0E00               	movlw	0
  2791   001A8C  6E2D               	movwf	(___fldiv@grs+3)^0,c
  2792   001A8E  0E00               	movlw	0
  2793   001A90  6E2F               	movwf	___fldiv@aexp^0,c
  2794   001A92  EF83  F00D         	goto	l2274
  2795   001A96                     l7940:
  2796   001A96  502F               	movf	___fldiv@aexp^0,w,c
  2797   001A98  B4D8               	btfsc	status,2,c
  2798   001A9A  EF51  F00D         	goto	u7821
  2799   001A9E  EF53  F00D         	goto	u7820
  2800   001AA2                     u7821:
  2801   001AA2  EF6A  F00D         	goto	l7948
  2802   001AA6                     u7820:
  2803   001AA6  90D8               	bcf	status,0,c
  2804   001AA8  3623               	rlcf	___fldiv@rem^0,f,c
  2805   001AAA  3624               	rlcf	(___fldiv@rem+1)^0,f,c
  2806   001AAC  3625               	rlcf	(___fldiv@rem+2)^0,f,c
  2807   001AAE  3626               	rlcf	(___fldiv@rem+3)^0,f,c
  2808   001AB0  90D8               	bcf	status,0,c
  2809   001AB2  3617               	rlcf	___fldiv@b^0,f,c
  2810   001AB4  3618               	rlcf	(___fldiv@b+1)^0,f,c
  2811   001AB6  3619               	rlcf	(___fldiv@b+2)^0,f,c
  2812   001AB8  361A               	rlcf	(___fldiv@b+3)^0,f,c
  2813   001ABA  AE2D               	btfss	(___fldiv@grs+3)^0,7,c
  2814   001ABC  EF62  F00D         	goto	u7831
  2815   001AC0  EF64  F00D         	goto	u7830
  2816   001AC4                     u7831:
  2817   001AC4  EF65  F00D         	goto	l2277
  2818   001AC8                     u7830:
  2819   001AC8  8017               	bsf	___fldiv@b^0,0,c
  2820   001ACA                     l2277:
  2821   001ACA  90D8               	bcf	status,0,c
  2822   001ACC  362A               	rlcf	___fldiv@grs^0,f,c
  2823   001ACE  362B               	rlcf	(___fldiv@grs+1)^0,f,c
  2824   001AD0  362C               	rlcf	(___fldiv@grs+2)^0,f,c
  2825   001AD2  362D               	rlcf	(___fldiv@grs+3)^0,f,c
  2826   001AD4                     l7948:
  2827   001AD4  501B               	movf	___fldiv@a^0,w,c
  2828   001AD6  5C23               	subwf	___fldiv@rem^0,w,c
  2829   001AD8  501C               	movf	(___fldiv@a+1)^0,w,c
  2830   001ADA  5824               	subwfb	(___fldiv@rem+1)^0,w,c
  2831   001ADC  501D               	movf	(___fldiv@a+2)^0,w,c
  2832   001ADE  5825               	subwfb	(___fldiv@rem+2)^0,w,c
  2833   001AE0  501E               	movf	(___fldiv@a+3)^0,w,c
  2834   001AE2  5826               	subwfb	(___fldiv@rem+3)^0,w,c
  2835   001AE4  A0D8               	btfss	status,0,c
  2836   001AE6  EF77  F00D         	goto	u7841
  2837   001AEA  EF79  F00D         	goto	u7840
  2838   001AEE                     u7841:
  2839   001AEE  EF82  F00D         	goto	l7954
  2840   001AF2                     u7840:
  2841   001AF2  8C2D               	bsf	(___fldiv@grs+3)^0,6,c
  2842   001AF4  501B               	movf	___fldiv@a^0,w,c
  2843   001AF6  5E23               	subwf	___fldiv@rem^0,f,c
  2844   001AF8  501C               	movf	(___fldiv@a+1)^0,w,c
  2845   001AFA  5A24               	subwfb	(___fldiv@rem+1)^0,f,c
  2846   001AFC  501D               	movf	(___fldiv@a+2)^0,w,c
  2847   001AFE  5A25               	subwfb	(___fldiv@rem+2)^0,f,c
  2848   001B00  501E               	movf	(___fldiv@a+3)^0,w,c
  2849   001B02  5A26               	subwfb	(___fldiv@rem+3)^0,f,c
  2850   001B04                     l7954:
  2851   001B04  2A2F               	incf	___fldiv@aexp^0,f,c
  2852   001B06                     l2274:
  2853   001B06  0E19               	movlw	25
  2854   001B08  642F               	cpfsgt	___fldiv@aexp^0,c
  2855   001B0A  EF89  F00D         	goto	u7851
  2856   001B0E  EF8B  F00D         	goto	u7850
  2857   001B12                     u7851:
  2858   001B12  EF4B  F00D         	goto	l7940
  2859   001B16                     u7850:
  2860   001B16  5023               	movf	___fldiv@rem^0,w,c
  2861   001B18  1024               	iorwf	(___fldiv@rem+1)^0,w,c
  2862   001B1A  1025               	iorwf	(___fldiv@rem+2)^0,w,c
  2863   001B1C  1026               	iorwf	(___fldiv@rem+3)^0,w,c
  2864   001B1E  B4D8               	btfsc	status,2,c
  2865   001B20  EF94  F00D         	goto	u7861
  2866   001B24  EF96  F00D         	goto	u7860
  2867   001B28                     u7861:
  2868   001B28  EFAE  F00D         	goto	l7966
  2869   001B2C                     u7860:
  2870   001B2C  802A               	bsf	___fldiv@grs^0,0,c
  2871   001B2E  EFAE  F00D         	goto	l7966
  2872   001B32                     l7960:
  2873   001B32  90D8               	bcf	status,0,c
  2874   001B34  3617               	rlcf	___fldiv@b^0,f,c
  2875   001B36  3618               	rlcf	(___fldiv@b+1)^0,f,c
  2876   001B38  3619               	rlcf	(___fldiv@b+2)^0,f,c
  2877   001B3A  361A               	rlcf	(___fldiv@b+3)^0,f,c
  2878   001B3C  AE2D               	btfss	(___fldiv@grs+3)^0,7,c
  2879   001B3E  EFA3  F00D         	goto	u7871
  2880   001B42  EFA5  F00D         	goto	u7870
  2881   001B46                     u7871:
  2882   001B46  EFA6  F00D         	goto	l2283
  2883   001B4A                     u7870:
  2884   001B4A  8017               	bsf	___fldiv@b^0,0,c
  2885   001B4C                     l2283:
  2886   001B4C  90D8               	bcf	status,0,c
  2887   001B4E  362A               	rlcf	___fldiv@grs^0,f,c
  2888   001B50  362B               	rlcf	(___fldiv@grs+1)^0,f,c
  2889   001B52  362C               	rlcf	(___fldiv@grs+2)^0,f,c
  2890   001B54  362D               	rlcf	(___fldiv@grs+3)^0,f,c
  2891   001B56  0628               	decf	___fldiv@new_exp^0,f,c
  2892   001B58  A0D8               	btfss	status,0,c
  2893   001B5A  0629               	decf	(___fldiv@new_exp+1)^0,f,c
  2894   001B5C                     l7966:
  2895   001B5C  AE19               	btfss	(___fldiv@b+2)^0,7,c
  2896   001B5E  EFB3  F00D         	goto	u7881
  2897   001B62  EFB5  F00D         	goto	u7880
  2898   001B66                     u7881:
  2899   001B66  EF99  F00D         	goto	l7960
  2900   001B6A                     u7880:
  2901   001B6A  0E00               	movlw	0
  2902   001B6C  6E2F               	movwf	___fldiv@aexp^0,c
  2903   001B6E  AE2D               	btfss	(___fldiv@grs+3)^0,7,c
  2904   001B70  EFBC  F00D         	goto	u7891
  2905   001B74  EFBE  F00D         	goto	u7890
  2906   001B78                     u7891:
  2907   001B78  EFE2  F00D         	goto	l2285
  2908   001B7C                     u7890:
  2909   001B7C  0EFF               	movlw	255
  2910   001B7E  142A               	andwf	___fldiv@grs^0,w,c
  2911   001B80  6E1F               	movwf	??___fldiv^0,c
  2912   001B82  0EFF               	movlw	255
  2913   001B84  142B               	andwf	(___fldiv@grs+1)^0,w,c
  2914   001B86  6E20               	movwf	(??___fldiv+1)^0,c
  2915   001B88  0EFF               	movlw	255
  2916   001B8A  142C               	andwf	(___fldiv@grs+2)^0,w,c
  2917   001B8C  6E21               	movwf	(??___fldiv+2)^0,c
  2918   001B8E  0E7F               	movlw	127
  2919   001B90  142D               	andwf	(___fldiv@grs+3)^0,w,c
  2920   001B92  6E22               	movwf	(??___fldiv+3)^0,c
  2921   001B94  501F               	movf	??___fldiv^0,w,c
  2922   001B96  1020               	iorwf	(??___fldiv+1)^0,w,c
  2923   001B98  1021               	iorwf	(??___fldiv+2)^0,w,c
  2924   001B9A  1022               	iorwf	(??___fldiv+3)^0,w,c
  2925   001B9C  B4D8               	btfsc	status,2,c
  2926   001B9E  EFD3  F00D         	goto	u7901
  2927   001BA2  EFD5  F00D         	goto	u7900
  2928   001BA6                     u7901:
  2929   001BA6  EFD9  F00D         	goto	l2286
  2930   001BAA                     u7900:
  2931   001BAA                     l7974:
  2932   001BAA  0E01               	movlw	1
  2933   001BAC  6E2F               	movwf	___fldiv@aexp^0,c
  2934   001BAE  EFE2  F00D         	goto	l2285
  2935   001BB2                     l2286:
  2936   001BB2  A017               	btfss	___fldiv@b^0,0,c
  2937   001BB4  EFDE  F00D         	goto	u7911
  2938   001BB8  EFE0  F00D         	goto	u7910
  2939   001BBC                     u7911:
  2940   001BBC  EFE2  F00D         	goto	l2285
  2941   001BC0                     u7910:
  2942   001BC0  EFD5  F00D         	goto	l7974
  2943   001BC4                     l2285:
  2944   001BC4  502F               	movf	___fldiv@aexp^0,w,c
  2945   001BC6  B4D8               	btfsc	status,2,c
  2946   001BC8  EFE8  F00D         	goto	u7921
  2947   001BCC  EFEA  F00D         	goto	u7920
  2948   001BD0                     u7921:
  2949   001BD0  EF0E  F00E         	goto	l7986
  2950   001BD4                     u7920:
  2951   001BD4  0E01               	movlw	1
  2952   001BD6  2617               	addwf	___fldiv@b^0,f,c
  2953   001BD8  0E00               	movlw	0
  2954   001BDA  2218               	addwfc	(___fldiv@b+1)^0,f,c
  2955   001BDC  2219               	addwfc	(___fldiv@b+2)^0,f,c
  2956   001BDE  221A               	addwfc	(___fldiv@b+3)^0,f,c
  2957   001BE0  A01A               	btfss	(___fldiv@b+3)^0,0,c
  2958   001BE2  EFF5  F00D         	goto	u7931
  2959   001BE6  EFF7  F00D         	goto	u7930
  2960   001BEA                     u7931:
  2961   001BEA  EF0E  F00E         	goto	l7986
  2962   001BEE                     u7930:
  2963   001BEE  C017  F01F         	movff	___fldiv@b,??___fldiv
  2964   001BF2  C018  F020         	movff	___fldiv@b+1,??___fldiv+1
  2965   001BF6  C019  F021         	movff	___fldiv@b+2,??___fldiv+2
  2966   001BFA  C01A  F022         	movff	___fldiv@b+3,??___fldiv+3
  2967   001BFE  3422               	rlcf	(??___fldiv+3)^0,w,c
  2968   001C00  3222               	rrcf	(??___fldiv+3)^0,f,c
  2969   001C02  3221               	rrcf	(??___fldiv+2)^0,f,c
  2970   001C04  3220               	rrcf	(??___fldiv+1)^0,f,c
  2971   001C06  321F               	rrcf	??___fldiv^0,f,c
  2972   001C08  C01F  F017         	movff	??___fldiv,___fldiv@b
  2973   001C0C  C020  F018         	movff	??___fldiv+1,___fldiv@b+1
  2974   001C10  C021  F019         	movff	??___fldiv+2,___fldiv@b+2
  2975   001C14  C022  F01A         	movff	??___fldiv+3,___fldiv@b+3
  2976   001C18  4A28               	infsnz	___fldiv@new_exp^0,f,c
  2977   001C1A  2A29               	incf	(___fldiv@new_exp+1)^0,f,c
  2978   001C1C                     l7986:
  2979   001C1C  BE29               	btfsc	(___fldiv@new_exp+1)^0,7,c
  2980   001C1E  EF19  F00E         	goto	u7941
  2981   001C22  5029               	movf	(___fldiv@new_exp+1)^0,w,c
  2982   001C24  E108               	bnz	u7940
  2983   001C26  2828               	incf	___fldiv@new_exp^0,w,c
  2984   001C28  A0D8               	btfss	status,0,c
  2985   001C2A  EF19  F00E         	goto	u7941
  2986   001C2E  EF1B  F00E         	goto	u7940
  2987   001C32                     u7941:
  2988   001C32  EF26  F00E         	goto	l7990
  2989   001C36                     u7940:
  2990   001C36  0E00               	movlw	0
  2991   001C38  6E29               	movwf	(___fldiv@new_exp+1)^0,c
  2992   001C3A  6828               	setf	___fldiv@new_exp^0,c
  2993   001C3C  0E00               	movlw	0
  2994   001C3E  6E17               	movwf	___fldiv@b^0,c
  2995   001C40  0E00               	movlw	0
  2996   001C42  6E18               	movwf	(___fldiv@b+1)^0,c
  2997   001C44  0E00               	movlw	0
  2998   001C46  6E19               	movwf	(___fldiv@b+2)^0,c
  2999   001C48  0E00               	movlw	0
  3000   001C4A  6E1A               	movwf	(___fldiv@b+3)^0,c
  3001   001C4C                     l7990:
  3002   001C4C  BE29               	btfsc	(___fldiv@new_exp+1)^0,7,c
  3003   001C4E  EF33  F00E         	goto	u7950
  3004   001C52  5029               	movf	(___fldiv@new_exp+1)^0,w,c
  3005   001C54  E106               	bnz	u7951
  3006   001C56  0428               	decf	___fldiv@new_exp^0,w,c
  3007   001C58  B0D8               	btfsc	status,0,c
  3008   001C5A  EF31  F00E         	goto	u7951
  3009   001C5E  EF33  F00E         	goto	u7950
  3010   001C62                     u7951:
  3011   001C62  EF41  F00E         	goto	l7994
  3012   001C66                     u7950:
  3013   001C66  0E00               	movlw	0
  3014   001C68  6E29               	movwf	(___fldiv@new_exp+1)^0,c
  3015   001C6A  0E00               	movlw	0
  3016   001C6C  6E28               	movwf	___fldiv@new_exp^0,c
  3017   001C6E  0E00               	movlw	0
  3018   001C70  6E17               	movwf	___fldiv@b^0,c
  3019   001C72  0E00               	movlw	0
  3020   001C74  6E18               	movwf	(___fldiv@b+1)^0,c
  3021   001C76  0E00               	movlw	0
  3022   001C78  6E19               	movwf	(___fldiv@b+2)^0,c
  3023   001C7A  0E00               	movlw	0
  3024   001C7C  6E1A               	movwf	(___fldiv@b+3)^0,c
  3025   001C7E  0E00               	movlw	0
  3026   001C80  6E27               	movwf	___fldiv@sign^0,c
  3027   001C82                     l7994:
  3028   001C82  C028  F02E         	movff	___fldiv@new_exp,___fldiv@bexp
  3029   001C86  A02E               	btfss	___fldiv@bexp^0,0,c
  3030   001C88  EF48  F00E         	goto	u7961
  3031   001C8C  EF4A  F00E         	goto	u7960
  3032   001C90                     u7961:
  3033   001C90  EF4D  F00E         	goto	l8000
  3034   001C94                     u7960:
  3035   001C94  8E19               	bsf	(___fldiv@b+2)^0,7,c
  3036   001C96  EF4E  F00E         	goto	l8002
  3037   001C9A                     l8000:
  3038   001C9A  9E19               	bcf	(___fldiv@b+2)^0,7,c
  3039   001C9C                     l8002:
  3040   001C9C  90D8               	bcf	status,0,c
  3041   001C9E  302E               	rrcf	___fldiv@bexp^0,w,c
  3042   001CA0  6E1A               	movwf	(___fldiv@b+3)^0,c
  3043   001CA2  EF04  F00D         	goto	l7916
  3044   001CA6                     l2272:
  3045   001CA6  0012               	return		;funcret
  3046   001CA8                     __end_of___fldiv:
  3047                           	callstack 0
  3048                           
  3049 ;; *************** function ___fladd *****************
  3050 ;; Defined at:
  3051 ;;		line 10 in file "C:\Program Files\Microchip\xc8\v2.40\pic\sources\c99\common\sprcadd.c"
  3052 ;; Parameters:    Size  Location     Type
  3053 ;;  b               4   47[COMRAM] unsigned char 
  3054 ;;  a               4   51[COMRAM] unsigned char 
  3055 ;; Auto vars:     Size  Location     Type
  3056 ;;  grs             1   62[COMRAM] unsigned char 
  3057 ;;  bexp            1   61[COMRAM] unsigned char 
  3058 ;;  aexp            1   60[COMRAM] unsigned char 
  3059 ;;  signs           1   59[COMRAM] unsigned char 
  3060 ;; Return value:  Size  Location     Type
  3061 ;;                  4   47[COMRAM] unsigned char 
  3062 ;; Registers used:
  3063 ;;		wreg, status,2, status,0
  3064 ;; Tracked objects:
  3065 ;;		On entry : 0/0
  3066 ;;		On exit  : 0/0
  3067 ;;		Unchanged: 0/0
  3068 ;; Data sizes:     COMRAM   BANK0   BANK1   BANK2   BANK3   BANK4   BANK5   BANK6   BANK7   BANK8   BANK9  BANK10  BANK1
      +1  BANK12  BANK13  BANK14  BANK15
  3069 ;;      Params:         8       0       0       0       0       0       0       0       0       0       0       0       
      +0       0       0       0       0
  3070 ;;      Locals:         4       0       0       0       0       0       0       0       0       0       0       0       
      +0       0       0       0       0
  3071 ;;      Temps:          4       0       0       0       0       0       0       0       0       0       0       0       
      +0       0       0       0       0
  3072 ;;      Totals:        16       0       0       0       0       0       0       0       0       0       0       0       
      +0       0       0       0       0
  3073 ;;Total ram usage:       16 bytes
  3074 ;; Hardware stack levels used: 1
  3075 ;; Hardware stack levels required when called: 4
  3076 ;; This function calls:
  3077 ;;		Nothing
  3078 ;; This function is called by:
  3079 ;;		_MSSP_I2C_Init
  3080 ;;		_EUSART_BAUD_RATE_Calculation
  3081 ;; This function uses a non-reentrant model
  3082 ;;
  3083                           
  3084                           	psect	text13
  3085   001016                     __ptext13:
  3086                           	callstack 0
  3087   001016                     ___fladd:
  3088                           	callstack 25
  3089   001016  5033               	movf	(___fladd@b+3)^0,w,c
  3090   001018  0B80               	andlw	128
  3091   00101A  6E3C               	movwf	___fladd@signs^0,c
  3092   00101C  5033               	movf	(___fladd@b+3)^0,w,c
  3093   00101E  2433               	addwf	(___fladd@b+3)^0,w,c
  3094   001020  6E3E               	movwf	___fladd@bexp^0,c
  3095   001022  AE32               	btfss	(___fladd@b+2)^0,7,c
  3096   001024  EF16  F008         	goto	u7351
  3097   001028  EF18  F008         	goto	u7350
  3098   00102C                     u7351:
  3099   00102C  EF19  F008         	goto	l7676
  3100   001030                     u7350:
  3101   001030  803E               	bsf	___fladd@bexp^0,0,c
  3102   001032                     l7676:
  3103   001032  503E               	movf	___fladd@bexp^0,w,c
  3104   001034  B4D8               	btfsc	status,2,c
  3105   001036  EF1F  F008         	goto	u7361
  3106   00103A  EF21  F008         	goto	u7360
  3107   00103E                     u7361:
  3108   00103E  EF36  F008         	goto	l7686
  3109   001042                     u7360:
  3110   001042  283E               	incf	___fladd@bexp^0,w,c
  3111   001044  A4D8               	btfss	status,2,c
  3112   001046  EF27  F008         	goto	u7371
  3113   00104A  EF29  F008         	goto	u7370
  3114   00104E                     u7371:
  3115   00104E  EF31  F008         	goto	l7682
  3116   001052                     u7370:
  3117   001052  0E00               	movlw	0
  3118   001054  6E30               	movwf	___fladd@b^0,c
  3119   001056  0E00               	movlw	0
  3120   001058  6E31               	movwf	(___fladd@b+1)^0,c
  3121   00105A  0E00               	movlw	0
  3122   00105C  6E32               	movwf	(___fladd@b+2)^0,c
  3123   00105E  0E00               	movlw	0
  3124   001060  6E33               	movwf	(___fladd@b+3)^0,c
  3125   001062                     l7682:
  3126   001062  8E32               	bsf	(___fladd@b+2)^0,7,c
  3127   001064  0E00               	movlw	0
  3128   001066  6E33               	movwf	(___fladd@b+3)^0,c
  3129   001068  EF3E  F008         	goto	l7688
  3130   00106C                     l7686:
  3131   00106C  0E00               	movlw	0
  3132   00106E  6E30               	movwf	___fladd@b^0,c
  3133   001070  0E00               	movlw	0
  3134   001072  6E31               	movwf	(___fladd@b+1)^0,c
  3135   001074  0E00               	movlw	0
  3136   001076  6E32               	movwf	(___fladd@b+2)^0,c
  3137   001078  0E00               	movlw	0
  3138   00107A  6E33               	movwf	(___fladd@b+3)^0,c
  3139   00107C                     l7688:
  3140   00107C  5037               	movf	(___fladd@a+3)^0,w,c
  3141   00107E  0B80               	andlw	128
  3142   001080  6E3D               	movwf	___fladd@aexp^0,c
  3143   001082  503C               	movf	___fladd@signs^0,w,c
  3144   001084  183D               	xorwf	___fladd@aexp^0,w,c
  3145   001086  B4D8               	btfsc	status,2,c
  3146   001088  EF48  F008         	goto	u7381
  3147   00108C  EF4A  F008         	goto	u7380
  3148   001090                     u7381:
  3149   001090  EF4B  F008         	goto	l7694
  3150   001094                     u7380:
  3151   001094  8C3C               	bsf	___fladd@signs^0,6,c
  3152   001096                     l7694:
  3153   001096  5037               	movf	(___fladd@a+3)^0,w,c
  3154   001098  2437               	addwf	(___fladd@a+3)^0,w,c
  3155   00109A  6E3D               	movwf	___fladd@aexp^0,c
  3156   00109C  AE36               	btfss	(___fladd@a+2)^0,7,c
  3157   00109E  EF53  F008         	goto	u7391
  3158   0010A2  EF55  F008         	goto	u7390
  3159   0010A6                     u7391:
  3160   0010A6  EF56  F008         	goto	l7700
  3161   0010AA                     u7390:
  3162   0010AA  803D               	bsf	___fladd@aexp^0,0,c
  3163   0010AC                     l7700:
  3164   0010AC  503D               	movf	___fladd@aexp^0,w,c
  3165   0010AE  B4D8               	btfsc	status,2,c
  3166   0010B0  EF5C  F008         	goto	u7401
  3167   0010B4  EF5E  F008         	goto	u7400
  3168   0010B8                     u7401:
  3169   0010B8  EF73  F008         	goto	l7710
  3170   0010BC                     u7400:
  3171   0010BC  283D               	incf	___fladd@aexp^0,w,c
  3172   0010BE  A4D8               	btfss	status,2,c
  3173   0010C0  EF64  F008         	goto	u7411
  3174   0010C4  EF66  F008         	goto	u7410
  3175   0010C8                     u7411:
  3176   0010C8  EF6E  F008         	goto	l7706
  3177   0010CC                     u7410:
  3178   0010CC  0E00               	movlw	0
  3179   0010CE  6E34               	movwf	___fladd@a^0,c
  3180   0010D0  0E00               	movlw	0
  3181   0010D2  6E35               	movwf	(___fladd@a+1)^0,c
  3182   0010D4  0E00               	movlw	0
  3183   0010D6  6E36               	movwf	(___fladd@a+2)^0,c
  3184   0010D8  0E00               	movlw	0
  3185   0010DA  6E37               	movwf	(___fladd@a+3)^0,c
  3186   0010DC                     l7706:
  3187   0010DC  8E36               	bsf	(___fladd@a+2)^0,7,c
  3188   0010DE  0E00               	movlw	0
  3189   0010E0  6E37               	movwf	(___fladd@a+3)^0,c
  3190   0010E2  EF7B  F008         	goto	l7712
  3191   0010E6                     l7710:
  3192   0010E6  0E00               	movlw	0
  3193   0010E8  6E34               	movwf	___fladd@a^0,c
  3194   0010EA  0E00               	movlw	0
  3195   0010EC  6E35               	movwf	(___fladd@a+1)^0,c
  3196   0010EE  0E00               	movlw	0
  3197   0010F0  6E36               	movwf	(___fladd@a+2)^0,c
  3198   0010F2  0E00               	movlw	0
  3199   0010F4  6E37               	movwf	(___fladd@a+3)^0,c
  3200   0010F6                     l7712:
  3201   0010F6  503E               	movf	___fladd@bexp^0,w,c
  3202   0010F8  5C3D               	subwf	___fladd@aexp^0,w,c
  3203   0010FA  B0D8               	btfsc	status,0,c
  3204   0010FC  EF82  F008         	goto	u7421
  3205   001100  EF84  F008         	goto	u7420
  3206   001104                     u7421:
  3207   001104  EFAB  F008         	goto	l7748
  3208   001108                     u7420:
  3209   001108  AC3C               	btfss	___fladd@signs^0,6,c
  3210   00110A  EF89  F008         	goto	u7431
  3211   00110E  EF8B  F008         	goto	u7430
  3212   001112                     u7431:
  3213   001112  EF8D  F008         	goto	l7718
  3214   001116                     u7430:
  3215   001116  0E80               	movlw	128
  3216   001118  1A3C               	xorwf	___fladd@signs^0,f,c
  3217   00111A                     l7718:
  3218   00111A  C03E  F03F         	movff	___fladd@bexp,___fladd@grs
  3219   00111E  C03D  F03E         	movff	___fladd@aexp,___fladd@bexp
  3220   001122  C03F  F03D         	movff	___fladd@grs,___fladd@aexp
  3221   001126  C030  F03F         	movff	___fladd@b,___fladd@grs
  3222   00112A  C034  F030         	movff	___fladd@a,___fladd@b
  3223   00112E  C03F  F034         	movff	___fladd@grs,___fladd@a
  3224   001132  C031  F03F         	movff	___fladd@b+1,___fladd@grs
  3225   001136  C035  F031         	movff	___fladd@a+1,___fladd@b+1
  3226   00113A  C03F  F035         	movff	___fladd@grs,___fladd@a+1
  3227   00113E  C032  F03F         	movff	___fladd@b+2,___fladd@grs
  3228   001142  C036  F032         	movff	___fladd@a+2,___fladd@b+2
  3229   001146  C03F  F036         	movff	___fladd@grs,___fladd@a+2
  3230   00114A  C033  F03F         	movff	___fladd@b+3,___fladd@grs
  3231   00114E  C037  F033         	movff	___fladd@a+3,___fladd@b+3
  3232   001152  C03F  F037         	movff	___fladd@grs,___fladd@a+3
  3233   001156                     l7748:
  3234   001156  0E00               	movlw	0
  3235   001158  6E3F               	movwf	___fladd@grs^0,c
  3236   00115A  503E               	movf	___fladd@bexp^0,w,c
  3237   00115C  C03D  F038         	movff	___fladd@aexp,??___fladd
  3238   001160  6A39               	clrf	(??___fladd+1)^0,c
  3239   001162  5E38               	subwf	??___fladd^0,f,c
  3240   001164  0E00               	movlw	0
  3241   001166  5A39               	subwfb	(??___fladd+1)^0,f,c
  3242   001168  BE39               	btfsc	(??___fladd+1)^0,7,c
  3243   00116A  EFC0  F008         	goto	u7441
  3244   00116E  5039               	movf	(??___fladd+1)^0,w,c
  3245   001170  E109               	bnz	u7440
  3246   001172  0E1A               	movlw	26
  3247   001174  5C38               	subwf	??___fladd^0,w,c
  3248   001176  A0D8               	btfss	status,0,c
  3249   001178  EFC0  F008         	goto	u7441
  3250   00117C  EFC2  F008         	goto	u7440
  3251   001180                     u7441:
  3252   001180  EFF9  F008         	goto	l2219
  3253   001184                     u7440:
  3254   001184  5030               	movf	___fladd@b^0,w,c
  3255   001186  1031               	iorwf	(___fladd@b+1)^0,w,c
  3256   001188  1032               	iorwf	(___fladd@b+2)^0,w,c
  3257   00118A  1033               	iorwf	(___fladd@b+3)^0,w,c
  3258   00118C  A4D8               	btfss	status,2,c
  3259   00118E  EFCB  F008         	goto	u7451
  3260   001192  EFCE  F008         	goto	u7450
  3261   001196                     u7451:
  3262   001196  0E01               	movlw	1
  3263   001198  EFCF  F008         	goto	u7460
  3264   00119C                     u7450:
  3265   00119C  0E00               	movlw	0
  3266   00119E                     u7460:
  3267   00119E  6E3F               	movwf	___fladd@grs^0,c
  3268   0011A0  0E00               	movlw	0
  3269   0011A2  6E30               	movwf	___fladd@b^0,c
  3270   0011A4  0E00               	movlw	0
  3271   0011A6  6E31               	movwf	(___fladd@b+1)^0,c
  3272   0011A8  0E00               	movlw	0
  3273   0011AA  6E32               	movwf	(___fladd@b+2)^0,c
  3274   0011AC  0E00               	movlw	0
  3275   0011AE  6E33               	movwf	(___fladd@b+3)^0,c
  3276   0011B0  C03D  F03E         	movff	___fladd@aexp,___fladd@bexp
  3277   0011B4  EF02  F009         	goto	l2218
  3278   0011B8                     l2220:
  3279   0011B8  A03F               	btfss	___fladd@grs^0,0,c
  3280   0011BA  EFE1  F008         	goto	u7471
  3281   0011BE  EFE3  F008         	goto	u7470
  3282   0011C2                     u7471:
  3283   0011C2  EFE9  F008         	goto	l7760
  3284   0011C6                     u7470:
  3285   0011C6  90D8               	bcf	status,0,c
  3286   0011C8  303F               	rrcf	___fladd@grs^0,w,c
  3287   0011CA  0901               	iorlw	1
  3288   0011CC  6E3F               	movwf	___fladd@grs^0,c
  3289   0011CE  EFEB  F008         	goto	l7762
  3290   0011D2                     l7760:
  3291   0011D2  90D8               	bcf	status,0,c
  3292   0011D4  323F               	rrcf	___fladd@grs^0,f,c
  3293   0011D6                     l7762:
  3294   0011D6  A030               	btfss	___fladd@b^0,0,c
  3295   0011D8  EFF0  F008         	goto	u7481
  3296   0011DC  EFF2  F008         	goto	u7480
  3297   0011E0                     u7481:
  3298   0011E0  EFF3  F008         	goto	l7766
  3299   0011E4                     u7480:
  3300   0011E4  8E3F               	bsf	___fladd@grs^0,7,c
  3301   0011E6                     l7766:
  3302   0011E6  3433               	rlcf	(___fladd@b+3)^0,w,c
  3303   0011E8  3233               	rrcf	(___fladd@b+3)^0,f,c
  3304   0011EA  3232               	rrcf	(___fladd@b+2)^0,f,c
  3305   0011EC  3231               	rrcf	(___fladd@b+1)^0,f,c
  3306   0011EE  3230               	rrcf	___fladd@b^0,f,c
  3307   0011F0  2A3E               	incf	___fladd@bexp^0,f,c
  3308   0011F2                     l2219:
  3309   0011F2  503D               	movf	___fladd@aexp^0,w,c
  3310   0011F4  5C3E               	subwf	___fladd@bexp^0,w,c
  3311   0011F6  A0D8               	btfss	status,0,c
  3312   0011F8  EF00  F009         	goto	u7491
  3313   0011FC  EF02  F009         	goto	u7490
  3314   001200                     u7491:
  3315   001200  EFDC  F008         	goto	l2220
  3316   001204                     u7490:
  3317   001204                     l2218:
  3318   001204  BC3C               	btfsc	___fladd@signs^0,6,c
  3319   001206  EF07  F009         	goto	u7501
  3320   00120A  EF09  F009         	goto	u7500
  3321   00120E                     u7501:
  3322   00120E  EF49  F009         	goto	l7794
  3323   001212                     u7500:
  3324   001212  503E               	movf	___fladd@bexp^0,w,c
  3325   001214  A4D8               	btfss	status,2,c
  3326   001216  EF0F  F009         	goto	u7511
  3327   00121A  EF11  F009         	goto	u7510
  3328   00121E                     u7511:
  3329   00121E  EF1B  F009         	goto	l7776
  3330   001222                     u7510:
  3331   001222  0E00               	movlw	0
  3332   001224  6E30               	movwf	?___fladd^0,c
  3333   001226  0E00               	movlw	0
  3334   001228  6E31               	movwf	(?___fladd+1)^0,c
  3335   00122A  0E00               	movlw	0
  3336   00122C  6E32               	movwf	(?___fladd+2)^0,c
  3337   00122E  0E00               	movlw	0
  3338   001230  6E33               	movwf	(?___fladd+3)^0,c
  3339   001232  EF6A  F00A         	goto	l2227
  3340   001236                     l7776:
  3341   001236  5034               	movf	___fladd@a^0,w,c
  3342   001238  2630               	addwf	___fladd@b^0,f,c
  3343   00123A  5035               	movf	(___fladd@a+1)^0,w,c
  3344   00123C  2231               	addwfc	(___fladd@b+1)^0,f,c
  3345   00123E  5036               	movf	(___fladd@a+2)^0,w,c
  3346   001240  2232               	addwfc	(___fladd@b+2)^0,f,c
  3347   001242  5037               	movf	(___fladd@a+3)^0,w,c
  3348   001244  2233               	addwfc	(___fladd@b+3)^0,f,c
  3349   001246  A033               	btfss	(___fladd@b+3)^0,0,c
  3350   001248  EF28  F009         	goto	u7521
  3351   00124C  EF2A  F009         	goto	u7520
  3352   001250                     u7521:
  3353   001250  EFD6  F009         	goto	l7830
  3354   001254                     u7520:
  3355   001254  A03F               	btfss	___fladd@grs^0,0,c
  3356   001256  EF2F  F009         	goto	u7531
  3357   00125A  EF31  F009         	goto	u7530
  3358   00125E                     u7531:
  3359   00125E  EF37  F009         	goto	l7784
  3360   001262                     u7530:
  3361   001262  90D8               	bcf	status,0,c
  3362   001264  303F               	rrcf	___fladd@grs^0,w,c
  3363   001266  0901               	iorlw	1
  3364   001268  6E3F               	movwf	___fladd@grs^0,c
  3365   00126A  EF39  F009         	goto	l7786
  3366   00126E                     l7784:
  3367   00126E  90D8               	bcf	status,0,c
  3368   001270  323F               	rrcf	___fladd@grs^0,f,c
  3369   001272                     l7786:
  3370   001272  A030               	btfss	___fladd@b^0,0,c
  3371   001274  EF3E  F009         	goto	u7541
  3372   001278  EF40  F009         	goto	u7540
  3373   00127C                     u7541:
  3374   00127C  EF41  F009         	goto	l7790
  3375   001280                     u7540:
  3376   001280  8E3F               	bsf	___fladd@grs^0,7,c
  3377   001282                     l7790:
  3378   001282  3433               	rlcf	(___fladd@b+3)^0,w,c
  3379   001284  3233               	rrcf	(___fladd@b+3)^0,f,c
  3380   001286  3232               	rrcf	(___fladd@b+2)^0,f,c
  3381   001288  3231               	rrcf	(___fladd@b+1)^0,f,c
  3382   00128A  3230               	rrcf	___fladd@b^0,f,c
  3383   00128C  2A3E               	incf	___fladd@bexp^0,f,c
  3384   00128E  EFD6  F009         	goto	l7830
  3385   001292                     l7794:
  3386   001292  5034               	movf	___fladd@a^0,w,c
  3387   001294  5C30               	subwf	___fladd@b^0,w,c
  3388   001296  5035               	movf	(___fladd@a+1)^0,w,c
  3389   001298  5831               	subwfb	(___fladd@b+1)^0,w,c
  3390   00129A  5036               	movf	(___fladd@a+2)^0,w,c
  3391   00129C  5832               	subwfb	(___fladd@b+2)^0,w,c
  3392   00129E  5033               	movf	(___fladd@b+3)^0,w,c
  3393   0012A0  0A80               	xorlw	128
  3394   0012A2  6E38               	movwf	??___fladd^0,c
  3395   0012A4  5037               	movf	(___fladd@a+3)^0,w,c
  3396   0012A6  0A80               	xorlw	128
  3397   0012A8  5838               	subwfb	??___fladd^0,w,c
  3398   0012AA  B0D8               	btfsc	status,0,c
  3399   0012AC  EF5A  F009         	goto	u7551
  3400   0012B0  EF5C  F009         	goto	u7550
  3401   0012B4                     u7551:
  3402   0012B4  EF87  F009         	goto	l7804
  3403   0012B8                     u7550:
  3404   0012B8  5030               	movf	___fladd@b^0,w,c
  3405   0012BA  5C34               	subwf	___fladd@a^0,w,c
  3406   0012BC  6E38               	movwf	??___fladd^0,c
  3407   0012BE  5031               	movf	(___fladd@b+1)^0,w,c
  3408   0012C0  5835               	subwfb	(___fladd@a+1)^0,w,c
  3409   0012C2  6E39               	movwf	(??___fladd+1)^0,c
  3410   0012C4  5032               	movf	(___fladd@b+2)^0,w,c
  3411   0012C6  5836               	subwfb	(___fladd@a+2)^0,w,c
  3412   0012C8  6E3A               	movwf	(??___fladd+2)^0,c
  3413   0012CA  5033               	movf	(___fladd@b+3)^0,w,c
  3414   0012CC  5837               	subwfb	(___fladd@a+3)^0,w,c
  3415   0012CE  6E3B               	movwf	(??___fladd+3)^0,c
  3416   0012D0  0EFF               	movlw	255
  3417   0012D2  2438               	addwf	??___fladd^0,w,c
  3418   0012D4  6E30               	movwf	___fladd@b^0,c
  3419   0012D6  0EFF               	movlw	255
  3420   0012D8  2039               	addwfc	(??___fladd+1)^0,w,c
  3421   0012DA  6E31               	movwf	(___fladd@b+1)^0,c
  3422   0012DC  0EFF               	movlw	255
  3423   0012DE  203A               	addwfc	(??___fladd+2)^0,w,c
  3424   0012E0  6E32               	movwf	(___fladd@b+2)^0,c
  3425   0012E2  0EFF               	movlw	255
  3426   0012E4  203B               	addwfc	(??___fladd+3)^0,w,c
  3427   0012E6  6E33               	movwf	(___fladd@b+3)^0,c
  3428   0012E8  0E80               	movlw	128
  3429   0012EA  1A3C               	xorwf	___fladd@signs^0,f,c
  3430   0012EC  6C3F               	negf	___fladd@grs^0,c
  3431   0012EE  503F               	movf	___fladd@grs^0,w,c
  3432   0012F0  A4D8               	btfss	status,2,c
  3433   0012F2  EF7D  F009         	goto	u7561
  3434   0012F6  EF7F  F009         	goto	u7560
  3435   0012FA                     u7561:
  3436   0012FA  EF8F  F009         	goto	l2235
  3437   0012FE                     u7560:
  3438   0012FE  0E01               	movlw	1
  3439   001300  2630               	addwf	___fladd@b^0,f,c
  3440   001302  0E00               	movlw	0
  3441   001304  2231               	addwfc	(___fladd@b+1)^0,f,c
  3442   001306  2232               	addwfc	(___fladd@b+2)^0,f,c
  3443   001308  2233               	addwfc	(___fladd@b+3)^0,f,c
  3444   00130A  EF8F  F009         	goto	l2235
  3445   00130E                     l7804:
  3446   00130E  5034               	movf	___fladd@a^0,w,c
  3447   001310  5E30               	subwf	___fladd@b^0,f,c
  3448   001312  5035               	movf	(___fladd@a+1)^0,w,c
  3449   001314  5A31               	subwfb	(___fladd@b+1)^0,f,c
  3450   001316  5036               	movf	(___fladd@a+2)^0,w,c
  3451   001318  5A32               	subwfb	(___fladd@b+2)^0,f,c
  3452   00131A  5037               	movf	(___fladd@a+3)^0,w,c
  3453   00131C  5A33               	subwfb	(___fladd@b+3)^0,f,c
  3454   00131E                     l2235:
  3455   00131E  5030               	movf	___fladd@b^0,w,c
  3456   001320  1031               	iorwf	(___fladd@b+1)^0,w,c
  3457   001322  1032               	iorwf	(___fladd@b+2)^0,w,c
  3458   001324  1033               	iorwf	(___fladd@b+3)^0,w,c
  3459   001326  A4D8               	btfss	status,2,c
  3460   001328  EF98  F009         	goto	u7571
  3461   00132C  EF9A  F009         	goto	u7570
  3462   001330                     u7571:
  3463   001330  EFCF  F009         	goto	l7828
  3464   001334                     u7570:
  3465   001334  503F               	movf	___fladd@grs^0,w,c
  3466   001336  A4D8               	btfss	status,2,c
  3467   001338  EFA0  F009         	goto	u7581
  3468   00133C  EFA2  F009         	goto	u7580
  3469   001340                     u7581:
  3470   001340  EFCF  F009         	goto	l7828
  3471   001344                     u7580:
  3472   001344  0E00               	movlw	0
  3473   001346  6E30               	movwf	?___fladd^0,c
  3474   001348  0E00               	movlw	0
  3475   00134A  6E31               	movwf	(?___fladd+1)^0,c
  3476   00134C  0E00               	movlw	0
  3477   00134E  6E32               	movwf	(?___fladd+2)^0,c
  3478   001350  0E00               	movlw	0
  3479   001352  6E33               	movwf	(?___fladd+3)^0,c
  3480   001354  EF6A  F00A         	goto	l2227
  3481   001358                     l7812:
  3482   001358  90D8               	bcf	status,0,c
  3483   00135A  3630               	rlcf	___fladd@b^0,f,c
  3484   00135C  3631               	rlcf	(___fladd@b+1)^0,f,c
  3485   00135E  3632               	rlcf	(___fladd@b+2)^0,f,c
  3486   001360  3633               	rlcf	(___fladd@b+3)^0,f,c
  3487   001362  AE3F               	btfss	___fladd@grs^0,7,c
  3488   001364  EFB6  F009         	goto	u7591
  3489   001368  EFB8  F009         	goto	u7590
  3490   00136C                     u7591:
  3491   00136C  EFB9  F009         	goto	l7818
  3492   001370                     u7590:
  3493   001370  8030               	bsf	___fladd@b^0,0,c
  3494   001372                     l7818:
  3495   001372  A03F               	btfss	___fladd@grs^0,0,c
  3496   001374  EFBE  F009         	goto	u7601
  3497   001378  EFC0  F009         	goto	u7600
  3498   00137C                     u7601:
  3499   00137C  EFC4  F009         	goto	l7822
  3500   001380                     u7600:
  3501   001380  80D8               	bsf	status,0,c
  3502   001382  363F               	rlcf	___fladd@grs^0,f,c
  3503   001384  EFC6  F009         	goto	l7824
  3504   001388                     l7822:
  3505   001388  90D8               	bcf	status,0,c
  3506   00138A  363F               	rlcf	___fladd@grs^0,f,c
  3507   00138C                     l7824:
  3508   00138C  503E               	movf	___fladd@bexp^0,w,c
  3509   00138E  B4D8               	btfsc	status,2,c
  3510   001390  EFCC  F009         	goto	u7611
  3511   001394  EFCE  F009         	goto	u7610
  3512   001398                     u7611:
  3513   001398  EFCF  F009         	goto	l7828
  3514   00139C                     u7610:
  3515   00139C  063E               	decf	___fladd@bexp^0,f,c
  3516   00139E                     l7828:
  3517   00139E  AE32               	btfss	(___fladd@b+2)^0,7,c
  3518   0013A0  EFD4  F009         	goto	u7621
  3519   0013A4  EFD6  F009         	goto	u7620
  3520   0013A8                     u7621:
  3521   0013A8  EFAC  F009         	goto	l7812
  3522   0013AC                     u7620:
  3523   0013AC                     l7830:
  3524   0013AC  0E00               	movlw	0
  3525   0013AE  6E3D               	movwf	___fladd@aexp^0,c
  3526   0013B0  AE3F               	btfss	___fladd@grs^0,7,c
  3527   0013B2  EFDD  F009         	goto	u7631
  3528   0013B6  EFDF  F009         	goto	u7630
  3529   0013BA                     u7631:
  3530   0013BA  EFF7  F009         	goto	l2244
  3531   0013BE                     u7630:
  3532   0013BE  C03F  F038         	movff	___fladd@grs,??___fladd
  3533   0013C2  0E7F               	movlw	127
  3534   0013C4  1638               	andwf	??___fladd^0,f,c
  3535   0013C6  B4D8               	btfsc	status,2,c
  3536   0013C8  EFE8  F009         	goto	u7641
  3537   0013CC  EFEA  F009         	goto	u7640
  3538   0013D0                     u7641:
  3539   0013D0  EFEE  F009         	goto	l2245
  3540   0013D4                     u7640:
  3541   0013D4                     l7836:
  3542   0013D4  0E01               	movlw	1
  3543   0013D6  6E3D               	movwf	___fladd@aexp^0,c
  3544   0013D8  EFF7  F009         	goto	l2244
  3545   0013DC                     l2245:
  3546   0013DC  A030               	btfss	___fladd@b^0,0,c
  3547   0013DE  EFF3  F009         	goto	u7651
  3548   0013E2  EFF5  F009         	goto	u7650
  3549   0013E6                     u7651:
  3550   0013E6  EFF7  F009         	goto	l2244
  3551   0013EA                     u7650:
  3552   0013EA  EFEA  F009         	goto	l7836
  3553   0013EE                     l2244:
  3554   0013EE  503D               	movf	___fladd@aexp^0,w,c
  3555   0013F0  B4D8               	btfsc	status,2,c
  3556   0013F2  EFFD  F009         	goto	u7661
  3557   0013F6  EFFF  F009         	goto	u7660
  3558   0013FA                     u7661:
  3559   0013FA  EF2A  F00A         	goto	l7848
  3560   0013FE                     u7660:
  3561   0013FE  0E01               	movlw	1
  3562   001400  2630               	addwf	___fladd@b^0,f,c
  3563   001402  0E00               	movlw	0
  3564   001404  2231               	addwfc	(___fladd@b+1)^0,f,c
  3565   001406  2232               	addwfc	(___fladd@b+2)^0,f,c
  3566   001408  2233               	addwfc	(___fladd@b+3)^0,f,c
  3567   00140A  A033               	btfss	(___fladd@b+3)^0,0,c
  3568   00140C  EF0A  F00A         	goto	u7671
  3569   001410  EF0C  F00A         	goto	u7670
  3570   001414                     u7671:
  3571   001414  EF2A  F00A         	goto	l7848
  3572   001418                     u7670:
  3573   001418  C030  F038         	movff	___fladd@b,??___fladd
  3574   00141C  C031  F039         	movff	___fladd@b+1,??___fladd+1
  3575   001420  C032  F03A         	movff	___fladd@b+2,??___fladd+2
  3576   001424  C033  F03B         	movff	___fladd@b+3,??___fladd+3
  3577   001428  343B               	rlcf	(??___fladd+3)^0,w,c
  3578   00142A  323B               	rrcf	(??___fladd+3)^0,f,c
  3579   00142C  323A               	rrcf	(??___fladd+2)^0,f,c
  3580   00142E  3239               	rrcf	(??___fladd+1)^0,f,c
  3581   001430  3238               	rrcf	??___fladd^0,f,c
  3582   001432  C038  F030         	movff	??___fladd,___fladd@b
  3583   001436  C039  F031         	movff	??___fladd+1,___fladd@b+1
  3584   00143A  C03A  F032         	movff	??___fladd+2,___fladd@b+2
  3585   00143E  C03B  F033         	movff	??___fladd+3,___fladd@b+3
  3586   001442  283E               	incf	___fladd@bexp^0,w,c
  3587   001444  B4D8               	btfsc	status,2,c
  3588   001446  EF27  F00A         	goto	u7681
  3589   00144A  EF29  F00A         	goto	u7680
  3590   00144E                     u7681:
  3591   00144E  EF2A  F00A         	goto	l7848
  3592   001452                     u7680:
  3593   001452  2A3E               	incf	___fladd@bexp^0,f,c
  3594   001454                     l7848:
  3595   001454  283E               	incf	___fladd@bexp^0,w,c
  3596   001456  B4D8               	btfsc	status,2,c
  3597   001458  EF30  F00A         	goto	u7691
  3598   00145C  EF32  F00A         	goto	u7690
  3599   001460                     u7691:
  3600   001460  EF3A  F00A         	goto	l7852
  3601   001464                     u7690:
  3602   001464  503E               	movf	___fladd@bexp^0,w,c
  3603   001466  A4D8               	btfss	status,2,c
  3604   001468  EF38  F00A         	goto	u7701
  3605   00146C  EF3A  F00A         	goto	u7700
  3606   001470                     u7701:
  3607   001470  EF4C  F00A         	goto	l7856
  3608   001474                     u7700:
  3609   001474                     l7852:
  3610   001474  0E00               	movlw	0
  3611   001476  6E30               	movwf	___fladd@b^0,c
  3612   001478  0E00               	movlw	0
  3613   00147A  6E31               	movwf	(___fladd@b+1)^0,c
  3614   00147C  0E00               	movlw	0
  3615   00147E  6E32               	movwf	(___fladd@b+2)^0,c
  3616   001480  0E00               	movlw	0
  3617   001482  6E33               	movwf	(___fladd@b+3)^0,c
  3618   001484  503E               	movf	___fladd@bexp^0,w,c
  3619   001486  A4D8               	btfss	status,2,c
  3620   001488  EF48  F00A         	goto	u7711
  3621   00148C  EF4A  F00A         	goto	u7710
  3622   001490                     u7711:
  3623   001490  EF4C  F00A         	goto	l7856
  3624   001494                     u7710:
  3625   001494  0E00               	movlw	0
  3626   001496  6E3C               	movwf	___fladd@signs^0,c
  3627   001498                     l7856:
  3628   001498  A03E               	btfss	___fladd@bexp^0,0,c
  3629   00149A  EF51  F00A         	goto	u7721
  3630   00149E  EF53  F00A         	goto	u7720
  3631   0014A2                     u7721:
  3632   0014A2  EF56  F00A         	goto	l7860
  3633   0014A6                     u7720:
  3634   0014A6  8E32               	bsf	(___fladd@b+2)^0,7,c
  3635   0014A8  EF57  F00A         	goto	l7862
  3636   0014AC                     l7860:
  3637   0014AC  9E32               	bcf	(___fladd@b+2)^0,7,c
  3638   0014AE                     l7862:
  3639   0014AE  90D8               	bcf	status,0,c
  3640   0014B0  303E               	rrcf	___fladd@bexp^0,w,c
  3641   0014B2  6E33               	movwf	(___fladd@b+3)^0,c
  3642   0014B4  AE3C               	btfss	___fladd@signs^0,7,c
  3643   0014B6  EF5F  F00A         	goto	u7731
  3644   0014BA  EF61  F00A         	goto	u7730
  3645   0014BE                     u7731:
  3646   0014BE  EF62  F00A         	goto	l7868
  3647   0014C2                     u7730:
  3648   0014C2  8E33               	bsf	(___fladd@b+3)^0,7,c
  3649   0014C4                     l7868:
  3650   0014C4  C030  F030         	movff	___fladd@b,?___fladd
  3651   0014C8  C031  F031         	movff	___fladd@b+1,?___fladd+1
  3652   0014CC  C032  F032         	movff	___fladd@b+2,?___fladd+2
  3653   0014D0  C033  F033         	movff	___fladd@b+3,?___fladd+3
  3654   0014D4                     l2227:
  3655   0014D4  0012               	return		;funcret
  3656   0014D6                     __end_of___fladd:
  3657                           	callstack 0
  3658                           
  3659 ;; *************** function _MSSP_I2C_Interrupt_Configuration *****************
  3660 ;; Defined at:
  3661 ;;		line 229 in file "MCAL_Layer/I2C/hal_i2c.c"
  3662 ;; Parameters:    Size  Location     Type
  3663 ;;  i2c_obj         2    8[COMRAM] PTR const struct .
  3664 ;;		 -> i2c_obj(13), 
  3665 ;; Auto vars:     Size  Location     Type
  3666 ;;		None
  3667 ;; Return value:  Size  Location     Type
  3668 ;;                  1    wreg      void 
  3669 ;; Registers used:
  3670 ;;		wreg, fsr2l, fsr2h, status,2, status,0
  3671 ;; Tracked objects:
  3672 ;;		On entry : 0/0
  3673 ;;		On exit  : 0/0
  3674 ;;		Unchanged: 0/0
  3675 ;; Data sizes:     COMRAM   BANK0   BANK1   BANK2   BANK3   BANK4   BANK5   BANK6   BANK7   BANK8   BANK9  BANK10  BANK1
      +1  BANK12  BANK13  BANK14  BANK15
  3676 ;;      Params:         2       0       0       0       0       0       0       0       0       0       0       0       
      +0       0       0       0       0
  3677 ;;      Locals:         0       0       0       0       0       0       0       0       0       0       0       0       
      +0       0       0       0       0
  3678 ;;      Temps:          0       0       0       0       0       0       0       0       0       0       0       0       
      +0       0       0       0       0
  3679 ;;      Totals:         2       0       0       0       0       0       0       0       0       0       0       0       
      +0       0       0       0       0
  3680 ;;Total ram usage:        2 bytes
  3681 ;; Hardware stack levels used: 1
  3682 ;; Hardware stack levels required when called: 4
  3683 ;; This function calls:
  3684 ;;		Nothing
  3685 ;; This function is called by:
  3686 ;;		_MSSP_I2C_Init
  3687 ;; This function uses a non-reentrant model
  3688 ;;
  3689                           
  3690                           	psect	text14
  3691   002666                     __ptext14:
  3692                           	callstack 0
  3693   002666                     _MSSP_I2C_Interrupt_Configuration:
  3694                           	callstack 25
  3695   002666                     
  3696                           ;MCAL_Layer/I2C/hal_i2c.c: 231:         I2CInterruptHandler = i2c_obj->I2C_DefaultInterr
      +                          uptHandler;
  3697   002666  EE20 F005          	lfsr	2,5
  3698   00266A  5009               	movf	MSSP_I2C_Interrupt_Configuration@i2c_obj^0,w,c
  3699   00266C  26D9               	addwf	fsr2l,f,c
  3700   00266E  500A               	movf	(MSSP_I2C_Interrupt_Configuration@i2c_obj+1)^0,w,c
  3701   002670  22DA               	addwfc	fsr2h,f,c
  3702   002672  CFDE F05C          	movff	postinc2,_I2CInterruptHandler
  3703   002676  CFDD F05D          	movff	postdec2,_I2CInterruptHandler+1
  3704                           
  3705                           ;MCAL_Layer/I2C/hal_i2c.c: 232:         I2C_BUS_COLInterruptHandler = i2c_obj->I2C_Repor
      +                          t_Write_Collision;
  3706   00267A  EE20 F008          	lfsr	2,8
  3707   00267E  5009               	movf	MSSP_I2C_Interrupt_Configuration@i2c_obj^0,w,c
  3708   002680  26D9               	addwf	fsr2l,f,c
  3709   002682  500A               	movf	(MSSP_I2C_Interrupt_Configuration@i2c_obj+1)^0,w,c
  3710   002684  22DA               	addwfc	fsr2h,f,c
  3711   002686  CFDE F05A          	movff	postinc2,_I2C_BUS_COLInterruptHandler
  3712   00268A  CFDD F05B          	movff	postdec2,_I2C_BUS_COLInterruptHandler+1
  3713                           
  3714                           ;MCAL_Layer/I2C/hal_i2c.c: 233:         I2C_Report_Receive_OverFlowInterruptHandler = i2
      +                          c_obj->I2C_Report_Receive_Overflow;
  3715   00268E  EE20 F00B          	lfsr	2,11
  3716   002692  5009               	movf	MSSP_I2C_Interrupt_Configuration@i2c_obj^0,w,c
  3717   002694  26D9               	addwf	fsr2l,f,c
  3718   002696  500A               	movf	(MSSP_I2C_Interrupt_Configuration@i2c_obj+1)^0,w,c
  3719   002698  22DA               	addwfc	fsr2h,f,c
  3720   00269A  CFDE F09E          	movff	postinc2,_I2C_Report_Receive_OverFlowInterruptHandler
  3721   00269E  CFDD F09F          	movff	postdec2,_I2C_Report_Receive_OverFlowInterruptHandler+1
  3722   0026A2                     
  3723                           ;MCAL_Layer/I2C/hal_i2c.c: 234:         (PIE1bits.SSPIE = 1);
  3724   0026A2  869D               	bsf	157,3,c	;volatile
  3725   0026A4                     
  3726                           ;MCAL_Layer/I2C/hal_i2c.c: 235:         (PIE2bits.BCLIE = 1);
  3727   0026A4  86A0               	bsf	160,3,c	;volatile
  3728   0026A6                     
  3729                           ;MCAL_Layer/I2C/hal_i2c.c: 236:         (PIR1bits.SSPIF = 0);
  3730   0026A6  969E               	bcf	158,3,c	;volatile
  3731   0026A8                     
  3732                           ;MCAL_Layer/I2C/hal_i2c.c: 237:         (PIR2bits.BCLIF = 0);
  3733   0026A8  96A1               	bcf	161,3,c	;volatile
  3734   0026AA                     
  3735                           ;MCAL_Layer/I2C/hal_i2c.c: 255:         (INTCONbits.GIE = 1);
  3736   0026AA  8EF2               	bsf	242,7,c	;volatile
  3737   0026AC                     
  3738                           ;MCAL_Layer/I2C/hal_i2c.c: 256:         (INTCONbits.PEIE = 1);
  3739   0026AC  8CF2               	bsf	242,6,c	;volatile
  3740   0026AE  0012               	return		;funcret
  3741   0026B0                     __end_of_MSSP_I2C_Interrupt_Configuration:
  3742                           	callstack 0
  3743                           
  3744 ;; *************** function _InterruptManager *****************
  3745 ;; Defined at:
  3746 ;;		line 101 in file "MCAL_Layer/Interrupt/mcal_interrupt_manager.c"
  3747 ;; Parameters:    Size  Location     Type
  3748 ;;		None
  3749 ;; Auto vars:     Size  Location     Type
  3750 ;;		None
  3751 ;; Return value:  Size  Location     Type
  3752 ;;                  1    wreg      void 
  3753 ;; Registers used:
  3754 ;;		wreg, fsr2l, fsr2h, status,2, status,0, pcl, pclath, pclatu, tosl, cstack
  3755 ;; Tracked objects:
  3756 ;;		On entry : 0/0
  3757 ;;		On exit  : 0/0
  3758 ;;		Unchanged: 0/0
  3759 ;; Data sizes:     COMRAM   BANK0   BANK1   BANK2   BANK3   BANK4   BANK5   BANK6   BANK7   BANK8   BANK9  BANK10  BANK1
      +1  BANK12  BANK13  BANK14  BANK15
  3760 ;;      Params:         0       0       0       0       0       0       0       0       0       0       0       0       
      +0       0       0       0       0
  3761 ;;      Locals:         0       0       0       0       0       0       0       0       0       0       0       0       
      +0       0       0       0       0
  3762 ;;      Temps:          4       0       0       0       0       0       0       0       0       0       0       0       
      +0       0       0       0       0
  3763 ;;      Totals:         4       0       0       0       0       0       0       0       0       0       0       0       
      +0       0       0       0       0
  3764 ;;Total ram usage:        4 bytes
  3765 ;; Hardware stack levels used: 1
  3766 ;; Hardware stack levels required when called: 3
  3767 ;; This function calls:
  3768 ;;		_ADC_ISR
  3769 ;;		_CCP1_ISR
  3770 ;;		_CCP2_ISR
  3771 ;;		_EUSART_FRAMIN_ERROR_ISR
  3772 ;;		_EUSART_OVERRUN_ERROR_ISR
  3773 ;;		_EUSART_RX_ISR
  3774 ;;		_EUSART_TX_ISR
  3775 ;;		_INT0_ISR
  3776 ;;		_INT1_ISR
  3777 ;;		_INT2_ISR
  3778 ;;		_MSSP_I2C_BUS_COL_ISR
  3779 ;;		_MSSP_I2C_ISR
  3780 ;;		_RB4_ISR
  3781 ;;		_RB5_ISR
  3782 ;;		_RB6_ISR
  3783 ;;		_RB7_ISR
  3784 ;;		_TIMER0_ISR
  3785 ;;		_TIMER1_ISR
  3786 ;;		_TIMER2_ISR
  3787 ;;		_TIMER3_ISR
  3788 ;; This function is called by:
  3789 ;;		Interrupt level 2
  3790 ;; This function uses a non-reentrant model
  3791 ;;
  3792                           
  3793                           	psect	intcode
  3794   000008                     __pintcode:
  3795                           	callstack 0
  3796   000008                     _InterruptManager:
  3797                           	callstack 22
  3798                           
  3799                           ;incstack = 0
  3800   000008  8277               	bsf	int$flags,1,c	;set compiler interrupt flag (level 2)
  3801   00000A  ED6B  F00A         	call	int_func,f	;refresh shadow registers
  3802                           
  3803                           	psect	intcode_body
  3804   0014D6                     __pintcode_body:
  3805                           	callstack 22
  3806   0014D6                     int_func:
  3807                           	callstack 22
  3808   0014D6  0006               	pop		; remove dummy address from shadow register refresh
  3809   0014D8  CFFA F005          	movff	pclath,??_InterruptManager
  3810   0014DC  CFFB F006          	movff	pclatu,??_InterruptManager+1
  3811   0014E0  CFD9 F007          	movff	fsr2l,??_InterruptManager+2
  3812   0014E4  CFDA F008          	movff	fsr2h,??_InterruptManager+3
  3813   0014E8                     
  3814                           ;MCAL_Layer/Interrupt/mcal_interrupt_manager.c: 102:     if((1 == INTCONbits.INT0IE) && 
      +                          (1 == INTCONbits.INT0IF)){
  3815   0014E8  A8F2               	btfss	242,4,c	;volatile
  3816   0014EA  EF79  F00A         	goto	i2u639_41
  3817   0014EE  EF7B  F00A         	goto	i2u639_40
  3818   0014F2                     i2u639_41:
  3819   0014F2  EF84  F00A         	goto	i2l1163
  3820   0014F6                     i2u639_40:
  3821   0014F6  A2F2               	btfss	242,1,c	;volatile
  3822   0014F8  EF80  F00A         	goto	i2u640_41
  3823   0014FC  EF82  F00A         	goto	i2u640_40
  3824   001500                     i2u640_41:
  3825   001500  EF84  F00A         	goto	i2l1163
  3826   001504                     i2u640_40:
  3827   001504                     
  3828                           ;MCAL_Layer/Interrupt/mcal_interrupt_manager.c: 103:         INT0_ISR();
  3829   001504  EC0D  F014         	call	_INT0_ISR	;wreg free
  3830   001508                     i2l1163:
  3831                           
  3832                           ;MCAL_Layer/Interrupt/mcal_interrupt_manager.c: 107:     if((1 == INTCON3bits.INT1IE) &&
      +                           (1 == INTCON3bits.INT1IF)){
  3833   001508  A6F0               	btfss	240,3,c	;volatile
  3834   00150A  EF89  F00A         	goto	i2u641_41
  3835   00150E  EF8B  F00A         	goto	i2u641_40
  3836   001512                     i2u641_41:
  3837   001512  EF94  F00A         	goto	i2l1165
  3838   001516                     i2u641_40:
  3839   001516  A0F0               	btfss	240,0,c	;volatile
  3840   001518  EF90  F00A         	goto	i2u642_41
  3841   00151C  EF92  F00A         	goto	i2u642_40
  3842   001520                     i2u642_41:
  3843   001520  EF94  F00A         	goto	i2l1165
  3844   001524                     i2u642_40:
  3845   001524                     
  3846                           ;MCAL_Layer/Interrupt/mcal_interrupt_manager.c: 108:         INT1_ISR();
  3847   001524  EC0B  F014         	call	_INT1_ISR	;wreg free
  3848   001528                     i2l1165:
  3849                           
  3850                           ;MCAL_Layer/Interrupt/mcal_interrupt_manager.c: 112:     if((1 == INTCON3bits.INT2IE) &&
      +                           (1 == INTCON3bits.INT2IF)){
  3851   001528  A8F0               	btfss	240,4,c	;volatile
  3852   00152A  EF99  F00A         	goto	i2u643_41
  3853   00152E  EF9B  F00A         	goto	i2u643_40
  3854   001532                     i2u643_41:
  3855   001532  EFA4  F00A         	goto	i2l1167
  3856   001536                     i2u643_40:
  3857   001536  A2F0               	btfss	240,1,c	;volatile
  3858   001538  EFA0  F00A         	goto	i2u644_41
  3859   00153C  EFA2  F00A         	goto	i2u644_40
  3860   001540                     i2u644_41:
  3861   001540  EFA4  F00A         	goto	i2l1167
  3862   001544                     i2u644_40:
  3863   001544                     
  3864                           ;MCAL_Layer/Interrupt/mcal_interrupt_manager.c: 113:         INT2_ISR();
  3865   001544  EC09  F014         	call	_INT2_ISR	;wreg free
  3866   001548                     i2l1167:
  3867                           
  3868                           ;MCAL_Layer/Interrupt/mcal_interrupt_manager.c: 120:     if((1 == INTCONbits.RBIE) && (1
      +                           == INTCONbits.RBIF)
  3869   001548  A6F2               	btfss	242,3,c	;volatile
  3870   00154A  EFA9  F00A         	goto	i2u645_41
  3871   00154E  EFAB  F00A         	goto	i2u645_40
  3872   001552                     i2u645_41:
  3873   001552  EFC6  F00A         	goto	i2l1169
  3874   001556                     i2u645_40:
  3875   001556  A0F2               	btfss	242,0,c	;volatile
  3876   001558  EFB0  F00A         	goto	i2u646_41
  3877   00155C  EFB2  F00A         	goto	i2u646_40
  3878   001560                     i2u646_41:
  3879   001560  EFC6  F00A         	goto	i2l1169
  3880   001564                     i2u646_40:
  3881   001564  A881               	btfss	129,4,c	;volatile
  3882   001566  EFB7  F00A         	goto	i2u647_41
  3883   00156A  EFB9  F00A         	goto	i2u647_40
  3884   00156E                     i2u647_41:
  3885   00156E  EFC6  F00A         	goto	i2l1169
  3886   001572                     i2u647_40:
  3887   001572  0474               	decf	_RB4_Flag^0,w,c	;volatile
  3888   001574  A4D8               	btfss	status,2,c
  3889   001576  EFBF  F00A         	goto	i2u648_41
  3890   00157A  EFC1  F00A         	goto	i2u648_40
  3891   00157E                     i2u648_41:
  3892   00157E  EFC6  F00A         	goto	i2l1169
  3893   001582                     i2u648_40:
  3894   001582                     
  3895                           ;MCAL_Layer/Interrupt/mcal_interrupt_manager.c: 121:             && (GPIO_HIGH == PORTBb
      +                          its.RB4) && (RB4_Flag == 1 )){;MCAL_Layer/Interrupt/mcal_interrupt_manager.c: 122:      
      +                             RB4_Flag = 0;
  3896   001582  0E00               	movlw	0
  3897   001584  6E74               	movwf	_RB4_Flag^0,c	;volatile
  3898   001586                     
  3899                           ;MCAL_Layer/Interrupt/mcal_interrupt_manager.c: 123:         RB4_ISR(1);
  3900   001586  0E01               	movlw	1
  3901   001588  ECCC  F013         	call	_RB4_ISR
  3902   00158C                     i2l1169:
  3903                           
  3904                           ;MCAL_Layer/Interrupt/mcal_interrupt_manager.c: 127:     if((1 == INTCONbits.RBIE) && (1
      +                           == INTCONbits.RBIF)
  3905   00158C  A6F2               	btfss	242,3,c	;volatile
  3906   00158E  EFCB  F00A         	goto	i2u649_41
  3907   001592  EFCD  F00A         	goto	i2u649_40
  3908   001596                     i2u649_41:
  3909   001596  EFE8  F00A         	goto	i2l1171
  3910   00159A                     i2u649_40:
  3911   00159A  A0F2               	btfss	242,0,c	;volatile
  3912   00159C  EFD2  F00A         	goto	i2u650_41
  3913   0015A0  EFD4  F00A         	goto	i2u650_40
  3914   0015A4                     i2u650_41:
  3915   0015A4  EFE8  F00A         	goto	i2l1171
  3916   0015A8                     i2u650_40:
  3917   0015A8  B881               	btfsc	129,4,c	;volatile
  3918   0015AA  EFD9  F00A         	goto	i2u651_41
  3919   0015AE  EFDB  F00A         	goto	i2u651_40
  3920   0015B2                     i2u651_41:
  3921   0015B2  EFE8  F00A         	goto	i2l1171
  3922   0015B6                     i2u651_40:
  3923   0015B6  5074               	movf	_RB4_Flag^0,w,c	;volatile
  3924   0015B8  A4D8               	btfss	status,2,c
  3925   0015BA  EFE1  F00A         	goto	i2u652_41
  3926   0015BE  EFE3  F00A         	goto	i2u652_40
  3927   0015C2                     i2u652_41:
  3928   0015C2  EFE8  F00A         	goto	i2l1171
  3929   0015C6                     i2u652_40:
  3930   0015C6                     
  3931                           ;MCAL_Layer/Interrupt/mcal_interrupt_manager.c: 128:             && (GPIO_LOW == PORTBbi
      +                          ts.RB4)&& (RB4_Flag == 0 )){;MCAL_Layer/Interrupt/mcal_interrupt_manager.c: 129:        
      +                           RB4_Flag = 1;
  3932   0015C6  0E01               	movlw	1
  3933   0015C8  6E74               	movwf	_RB4_Flag^0,c	;volatile
  3934   0015CA                     
  3935                           ;MCAL_Layer/Interrupt/mcal_interrupt_manager.c: 130:         RB4_ISR(0);
  3936   0015CA  0E00               	movlw	0
  3937   0015CC  ECCC  F013         	call	_RB4_ISR
  3938   0015D0                     i2l1171:
  3939                           
  3940                           ;MCAL_Layer/Interrupt/mcal_interrupt_manager.c: 135:     if((1 == INTCONbits.RBIE) && (1
      +                           == INTCONbits.RBIF)
  3941   0015D0  A6F2               	btfss	242,3,c	;volatile
  3942   0015D2  EFED  F00A         	goto	i2u653_41
  3943   0015D6  EFEF  F00A         	goto	i2u653_40
  3944   0015DA                     i2u653_41:
  3945   0015DA  EF0A  F00B         	goto	i2l1173
  3946   0015DE                     i2u653_40:
  3947   0015DE  A0F2               	btfss	242,0,c	;volatile
  3948   0015E0  EFF4  F00A         	goto	i2u654_41
  3949   0015E4  EFF6  F00A         	goto	i2u654_40
  3950   0015E8                     i2u654_41:
  3951   0015E8  EF0A  F00B         	goto	i2l1173
  3952   0015EC                     i2u654_40:
  3953   0015EC  AA81               	btfss	129,5,c	;volatile
  3954   0015EE  EFFB  F00A         	goto	i2u655_41
  3955   0015F2  EFFD  F00A         	goto	i2u655_40
  3956   0015F6                     i2u655_41:
  3957   0015F6  EF0A  F00B         	goto	i2l1173
  3958   0015FA                     i2u655_40:
  3959   0015FA  0473               	decf	_RB5_Flag^0,w,c	;volatile
  3960   0015FC  A4D8               	btfss	status,2,c
  3961   0015FE  EF03  F00B         	goto	i2u656_41
  3962   001602  EF05  F00B         	goto	i2u656_40
  3963   001606                     i2u656_41:
  3964   001606  EF0A  F00B         	goto	i2l1173
  3965   00160A                     i2u656_40:
  3966   00160A                     
  3967                           ;MCAL_Layer/Interrupt/mcal_interrupt_manager.c: 136:             && (GPIO_HIGH == PORTBb
      +                          its.RB5)&& (RB5_Flag == 1 )){;MCAL_Layer/Interrupt/mcal_interrupt_manager.c: 137:       
      +                            RB5_Flag = 0;
  3968   00160A  0E00               	movlw	0
  3969   00160C  6E73               	movwf	_RB5_Flag^0,c	;volatile
  3970   00160E                     
  3971                           ;MCAL_Layer/Interrupt/mcal_interrupt_manager.c: 138:         RB5_ISR(1);
  3972   00160E  0E01               	movlw	1
  3973   001610  ECBF  F013         	call	_RB5_ISR
  3974   001614                     i2l1173:
  3975                           
  3976                           ;MCAL_Layer/Interrupt/mcal_interrupt_manager.c: 142:     if((1 == INTCONbits.RBIE) && (1
      +                           == INTCONbits.RBIF)
  3977   001614  A6F2               	btfss	242,3,c	;volatile
  3978   001616  EF0F  F00B         	goto	i2u657_41
  3979   00161A  EF11  F00B         	goto	i2u657_40
  3980   00161E                     i2u657_41:
  3981   00161E  EF2C  F00B         	goto	i2l1175
  3982   001622                     i2u657_40:
  3983   001622  A0F2               	btfss	242,0,c	;volatile
  3984   001624  EF16  F00B         	goto	i2u658_41
  3985   001628  EF18  F00B         	goto	i2u658_40
  3986   00162C                     i2u658_41:
  3987   00162C  EF2C  F00B         	goto	i2l1175
  3988   001630                     i2u658_40:
  3989   001630  BA81               	btfsc	129,5,c	;volatile
  3990   001632  EF1D  F00B         	goto	i2u659_41
  3991   001636  EF1F  F00B         	goto	i2u659_40
  3992   00163A                     i2u659_41:
  3993   00163A  EF2C  F00B         	goto	i2l1175
  3994   00163E                     i2u659_40:
  3995   00163E  5073               	movf	_RB5_Flag^0,w,c	;volatile
  3996   001640  A4D8               	btfss	status,2,c
  3997   001642  EF25  F00B         	goto	i2u660_41
  3998   001646  EF27  F00B         	goto	i2u660_40
  3999   00164A                     i2u660_41:
  4000   00164A  EF2C  F00B         	goto	i2l1175
  4001   00164E                     i2u660_40:
  4002   00164E                     
  4003                           ;MCAL_Layer/Interrupt/mcal_interrupt_manager.c: 143:             && (GPIO_LOW == PORTBbi
      +                          ts.RB5)&& (RB5_Flag == 0 )){;MCAL_Layer/Interrupt/mcal_interrupt_manager.c: 144:        
      +                           RB5_Flag = 1;
  4004   00164E  0E01               	movlw	1
  4005   001650  6E73               	movwf	_RB5_Flag^0,c	;volatile
  4006   001652                     
  4007                           ;MCAL_Layer/Interrupt/mcal_interrupt_manager.c: 145:         RB5_ISR(0);
  4008   001652  0E00               	movlw	0
  4009   001654  ECBF  F013         	call	_RB5_ISR
  4010   001658                     i2l1175:
  4011                           
  4012                           ;MCAL_Layer/Interrupt/mcal_interrupt_manager.c: 150:     if((1 == INTCONbits.RBIE) && (1
      +                           == INTCONbits.RBIF)
  4013   001658  A6F2               	btfss	242,3,c	;volatile
  4014   00165A  EF31  F00B         	goto	i2u661_41
  4015   00165E  EF33  F00B         	goto	i2u661_40
  4016   001662                     i2u661_41:
  4017   001662  EF4E  F00B         	goto	i2l1177
  4018   001666                     i2u661_40:
  4019   001666  A0F2               	btfss	242,0,c	;volatile
  4020   001668  EF38  F00B         	goto	i2u662_41
  4021   00166C  EF3A  F00B         	goto	i2u662_40
  4022   001670                     i2u662_41:
  4023   001670  EF4E  F00B         	goto	i2l1177
  4024   001674                     i2u662_40:
  4025   001674  AC81               	btfss	129,6,c	;volatile
  4026   001676  EF3F  F00B         	goto	i2u663_41
  4027   00167A  EF41  F00B         	goto	i2u663_40
  4028   00167E                     i2u663_41:
  4029   00167E  EF4E  F00B         	goto	i2l1177
  4030   001682                     i2u663_40:
  4031   001682  0472               	decf	_RB6_Flag^0,w,c	;volatile
  4032   001684  A4D8               	btfss	status,2,c
  4033   001686  EF47  F00B         	goto	i2u664_41
  4034   00168A  EF49  F00B         	goto	i2u664_40
  4035   00168E                     i2u664_41:
  4036   00168E  EF4E  F00B         	goto	i2l1177
  4037   001692                     i2u664_40:
  4038   001692                     
  4039                           ;MCAL_Layer/Interrupt/mcal_interrupt_manager.c: 151:             && (GPIO_HIGH == PORTBb
      +                          its.RB6)&& (RB6_Flag == 1 )){;MCAL_Layer/Interrupt/mcal_interrupt_manager.c: 152:       
      +                            RB6_Flag = 0;
  4040   001692  0E00               	movlw	0
  4041   001694  6E72               	movwf	_RB6_Flag^0,c	;volatile
  4042   001696                     
  4043                           ;MCAL_Layer/Interrupt/mcal_interrupt_manager.c: 153:         RB6_ISR(1);
  4044   001696  0E01               	movlw	1
  4045   001698  ECB2  F013         	call	_RB6_ISR
  4046   00169C                     i2l1177:
  4047                           
  4048                           ;MCAL_Layer/Interrupt/mcal_interrupt_manager.c: 157:     if((1 == INTCONbits.RBIE) && (1
      +                           == INTCONbits.RBIF)
  4049   00169C  A6F2               	btfss	242,3,c	;volatile
  4050   00169E  EF53  F00B         	goto	i2u665_41
  4051   0016A2  EF55  F00B         	goto	i2u665_40
  4052   0016A6                     i2u665_41:
  4053   0016A6  EF70  F00B         	goto	i2l1179
  4054   0016AA                     i2u665_40:
  4055   0016AA  A0F2               	btfss	242,0,c	;volatile
  4056   0016AC  EF5A  F00B         	goto	i2u666_41
  4057   0016B0  EF5C  F00B         	goto	i2u666_40
  4058   0016B4                     i2u666_41:
  4059   0016B4  EF70  F00B         	goto	i2l1179
  4060   0016B8                     i2u666_40:
  4061   0016B8  BA81               	btfsc	129,5,c	;volatile
  4062   0016BA  EF61  F00B         	goto	i2u667_41
  4063   0016BE  EF63  F00B         	goto	i2u667_40
  4064   0016C2                     i2u667_41:
  4065   0016C2  EF70  F00B         	goto	i2l1179
  4066   0016C6                     i2u667_40:
  4067   0016C6  5072               	movf	_RB6_Flag^0,w,c	;volatile
  4068   0016C8  A4D8               	btfss	status,2,c
  4069   0016CA  EF69  F00B         	goto	i2u668_41
  4070   0016CE  EF6B  F00B         	goto	i2u668_40
  4071   0016D2                     i2u668_41:
  4072   0016D2  EF70  F00B         	goto	i2l1179
  4073   0016D6                     i2u668_40:
  4074   0016D6                     
  4075                           ;MCAL_Layer/Interrupt/mcal_interrupt_manager.c: 158:             && (GPIO_LOW == PORTBbi
      +                          ts.RB5)&& (RB6_Flag == 0 )){;MCAL_Layer/Interrupt/mcal_interrupt_manager.c: 159:        
      +                           RB6_Flag = 1;
  4076   0016D6  0E01               	movlw	1
  4077   0016D8  6E72               	movwf	_RB6_Flag^0,c	;volatile
  4078   0016DA                     
  4079                           ;MCAL_Layer/Interrupt/mcal_interrupt_manager.c: 160:         RB6_ISR(0);
  4080   0016DA  0E00               	movlw	0
  4081   0016DC  ECB2  F013         	call	_RB6_ISR
  4082   0016E0                     i2l1179:
  4083                           
  4084                           ;MCAL_Layer/Interrupt/mcal_interrupt_manager.c: 165:     if((1 == INTCONbits.RBIE) && (1
      +                           == INTCONbits.RBIF)
  4085   0016E0  A6F2               	btfss	242,3,c	;volatile
  4086   0016E2  EF75  F00B         	goto	i2u669_41
  4087   0016E6  EF77  F00B         	goto	i2u669_40
  4088   0016EA                     i2u669_41:
  4089   0016EA  EF92  F00B         	goto	i2l1181
  4090   0016EE                     i2u669_40:
  4091   0016EE  A0F2               	btfss	242,0,c	;volatile
  4092   0016F0  EF7C  F00B         	goto	i2u670_41
  4093   0016F4  EF7E  F00B         	goto	i2u670_40
  4094   0016F8                     i2u670_41:
  4095   0016F8  EF92  F00B         	goto	i2l1181
  4096   0016FC                     i2u670_40:
  4097   0016FC  AE81               	btfss	129,7,c	;volatile
  4098   0016FE  EF83  F00B         	goto	i2u671_41
  4099   001702  EF85  F00B         	goto	i2u671_40
  4100   001706                     i2u671_41:
  4101   001706  EF92  F00B         	goto	i2l1181
  4102   00170A                     i2u671_40:
  4103   00170A  0471               	decf	_RB7_Flag^0,w,c	;volatile
  4104   00170C  A4D8               	btfss	status,2,c
  4105   00170E  EF8B  F00B         	goto	i2u672_41
  4106   001712  EF8D  F00B         	goto	i2u672_40
  4107   001716                     i2u672_41:
  4108   001716  EF92  F00B         	goto	i2l1181
  4109   00171A                     i2u672_40:
  4110   00171A                     
  4111                           ;MCAL_Layer/Interrupt/mcal_interrupt_manager.c: 166:             && (GPIO_HIGH == PORTBb
      +                          its.RB7)&& (RB7_Flag == 1 )){;MCAL_Layer/Interrupt/mcal_interrupt_manager.c: 167:       
      +                            RB7_Flag = 0;
  4112   00171A  0E00               	movlw	0
  4113   00171C  6E71               	movwf	_RB7_Flag^0,c	;volatile
  4114   00171E                     
  4115                           ;MCAL_Layer/Interrupt/mcal_interrupt_manager.c: 168:         RB7_ISR(1);
  4116   00171E  0E01               	movlw	1
  4117   001720  ECA5  F013         	call	_RB7_ISR
  4118   001724                     i2l1181:
  4119                           
  4120                           ;MCAL_Layer/Interrupt/mcal_interrupt_manager.c: 172:     if((1 == INTCONbits.RBIE) && (1
      +                           == INTCONbits.RBIF)
  4121   001724  A6F2               	btfss	242,3,c	;volatile
  4122   001726  EF97  F00B         	goto	i2u673_41
  4123   00172A  EF99  F00B         	goto	i2u673_40
  4124   00172E                     i2u673_41:
  4125   00172E  EFB4  F00B         	goto	i2l1183
  4126   001732                     i2u673_40:
  4127   001732  A0F2               	btfss	242,0,c	;volatile
  4128   001734  EF9E  F00B         	goto	i2u674_41
  4129   001738  EFA0  F00B         	goto	i2u674_40
  4130   00173C                     i2u674_41:
  4131   00173C  EFB4  F00B         	goto	i2l1183
  4132   001740                     i2u674_40:
  4133   001740  BE81               	btfsc	129,7,c	;volatile
  4134   001742  EFA5  F00B         	goto	i2u675_41
  4135   001746  EFA7  F00B         	goto	i2u675_40
  4136   00174A                     i2u675_41:
  4137   00174A  EFB4  F00B         	goto	i2l1183
  4138   00174E                     i2u675_40:
  4139   00174E  5071               	movf	_RB7_Flag^0,w,c	;volatile
  4140   001750  A4D8               	btfss	status,2,c
  4141   001752  EFAD  F00B         	goto	i2u676_41
  4142   001756  EFAF  F00B         	goto	i2u676_40
  4143   00175A                     i2u676_41:
  4144   00175A  EFB4  F00B         	goto	i2l1183
  4145   00175E                     i2u676_40:
  4146   00175E                     
  4147                           ;MCAL_Layer/Interrupt/mcal_interrupt_manager.c: 173:             && (GPIO_LOW == PORTBbi
      +                          ts.RB7)&& (RB7_Flag == 0 )){;MCAL_Layer/Interrupt/mcal_interrupt_manager.c: 174:        
      +                           RB7_Flag = 1;
  4148   00175E  0E01               	movlw	1
  4149   001760  6E71               	movwf	_RB7_Flag^0,c	;volatile
  4150   001762                     
  4151                           ;MCAL_Layer/Interrupt/mcal_interrupt_manager.c: 175:         RB7_ISR(0);
  4152   001762  0E00               	movlw	0
  4153   001764  ECA5  F013         	call	_RB7_ISR
  4154   001768                     i2l1183:
  4155                           
  4156                           ;MCAL_Layer/Interrupt/mcal_interrupt_manager.c: 183:     if((1 == PIE1bits.ADIE) && (1 =
      +                          = PIR1bits.ADIF)){
  4157   001768  AC9D               	btfss	157,6,c	;volatile
  4158   00176A  EFB9  F00B         	goto	i2u677_41
  4159   00176E  EFBB  F00B         	goto	i2u677_40
  4160   001772                     i2u677_41:
  4161   001772  EFC4  F00B         	goto	i2l1185
  4162   001776                     i2u677_40:
  4163   001776  AC9E               	btfss	158,6,c	;volatile
  4164   001778  EFC0  F00B         	goto	i2u678_41
  4165   00177C  EFC2  F00B         	goto	i2u678_40
  4166   001780                     i2u678_41:
  4167   001780  EFC4  F00B         	goto	i2l1185
  4168   001784                     i2u678_40:
  4169   001784                     
  4170                           ;MCAL_Layer/Interrupt/mcal_interrupt_manager.c: 184:         ADC_ISR();
  4171   001784  EC15  F014         	call	_ADC_ISR	;wreg free
  4172   001788                     i2l1185:
  4173                           
  4174                           ;MCAL_Layer/Interrupt/mcal_interrupt_manager.c: 190:     if((1 == INTCONbits.TMR0IE) && 
      +                          (1 == INTCONbits.TMR0IF)){
  4175   001788  AAF2               	btfss	242,5,c	;volatile
  4176   00178A  EFC9  F00B         	goto	i2u679_41
  4177   00178E  EFCB  F00B         	goto	i2u679_40
  4178   001792                     i2u679_41:
  4179   001792  EFD4  F00B         	goto	i2l1187
  4180   001796                     i2u679_40:
  4181   001796  A4F2               	btfss	242,2,c	;volatile
  4182   001798  EFD0  F00B         	goto	i2u680_41
  4183   00179C  EFD2  F00B         	goto	i2u680_40
  4184   0017A0                     i2u680_41:
  4185   0017A0  EFD4  F00B         	goto	i2l1187
  4186   0017A4                     i2u680_40:
  4187   0017A4                     
  4188                           ;MCAL_Layer/Interrupt/mcal_interrupt_manager.c: 191:         TIMER0_ISR();
  4189   0017A4  ECF7  F013         	call	_TIMER0_ISR	;wreg free
  4190   0017A8                     i2l1187:
  4191                           
  4192                           ;MCAL_Layer/Interrupt/mcal_interrupt_manager.c: 197:     if((1 == PIE1bits.TMR1IE) && (1
      +                           == PIR1bits.TMR1IF)){
  4193   0017A8  A09D               	btfss	157,0,c	;volatile
  4194   0017AA  EFD9  F00B         	goto	i2u681_41
  4195   0017AE  EFDB  F00B         	goto	i2u681_40
  4196   0017B2                     i2u681_41:
  4197   0017B2  EFE4  F00B         	goto	i2l1189
  4198   0017B6                     i2u681_40:
  4199   0017B6  A09E               	btfss	158,0,c	;volatile
  4200   0017B8  EFE0  F00B         	goto	i2u682_41
  4201   0017BC  EFE2  F00B         	goto	i2u682_40
  4202   0017C0                     i2u682_41:
  4203   0017C0  EFE4  F00B         	goto	i2l1189
  4204   0017C4                     i2u682_40:
  4205   0017C4                     
  4206                           ;MCAL_Layer/Interrupt/mcal_interrupt_manager.c: 198:         TIMER1_ISR();
  4207   0017C4  ECF1  F013         	call	_TIMER1_ISR	;wreg free
  4208   0017C8                     i2l1189:
  4209                           
  4210                           ;MCAL_Layer/Interrupt/mcal_interrupt_manager.c: 204:     if((1 == PIE1bits.TMR2IE) && (1
      +                           == PIR1bits.TMR2IF)){
  4211   0017C8  A29D               	btfss	157,1,c	;volatile
  4212   0017CA  EFE9  F00B         	goto	i2u683_41
  4213   0017CE  EFEB  F00B         	goto	i2u683_40
  4214   0017D2                     i2u683_41:
  4215   0017D2  EFF4  F00B         	goto	i2l1191
  4216   0017D6                     i2u683_40:
  4217   0017D6  A29E               	btfss	158,1,c	;volatile
  4218   0017D8  EFF0  F00B         	goto	i2u684_41
  4219   0017DC  EFF2  F00B         	goto	i2u684_40
  4220   0017E0                     i2u684_41:
  4221   0017E0  EFF4  F00B         	goto	i2l1191
  4222   0017E4                     i2u684_40:
  4223   0017E4                     
  4224                           ;MCAL_Layer/Interrupt/mcal_interrupt_manager.c: 205:         TIMER2_ISR();
  4225   0017E4  ECFD  F013         	call	_TIMER2_ISR	;wreg free
  4226   0017E8                     i2l1191:
  4227                           
  4228                           ;MCAL_Layer/Interrupt/mcal_interrupt_manager.c: 210:     if((1 == PIE2bits.TMR3IE) && (1
      +                           == PIR2bits.TMR3IF)){
  4229   0017E8  A2A0               	btfss	160,1,c	;volatile
  4230   0017EA  EFF9  F00B         	goto	i2u685_41
  4231   0017EE  EFFB  F00B         	goto	i2u685_40
  4232   0017F2                     i2u685_41:
  4233   0017F2  EF04  F00C         	goto	i2l1193
  4234   0017F6                     i2u685_40:
  4235   0017F6  A2A1               	btfss	161,1,c	;volatile
  4236   0017F8  EF00  F00C         	goto	i2u686_41
  4237   0017FC  EF02  F00C         	goto	i2u686_40
  4238   001800                     i2u686_41:
  4239   001800  EF04  F00C         	goto	i2l1193
  4240   001804                     i2u686_40:
  4241   001804                     
  4242                           ;MCAL_Layer/Interrupt/mcal_interrupt_manager.c: 211:         TIMER3_ISR();
  4243   001804  ECEB  F013         	call	_TIMER3_ISR	;wreg free
  4244   001808                     i2l1193:
  4245                           
  4246                           ;MCAL_Layer/Interrupt/mcal_interrupt_manager.c: 217:     if((1 == PIE1bits.CCP1IE) && (1
      +                           == PIR1bits.CCP1IF)){
  4247   001808  A49D               	btfss	157,2,c	;volatile
  4248   00180A  EF09  F00C         	goto	i2u687_41
  4249   00180E  EF0B  F00C         	goto	i2u687_40
  4250   001812                     i2u687_41:
  4251   001812  EF14  F00C         	goto	i2l1195
  4252   001816                     i2u687_40:
  4253   001816  A49E               	btfss	158,2,c	;volatile
  4254   001818  EF10  F00C         	goto	i2u688_41
  4255   00181C  EF12  F00C         	goto	i2u688_40
  4256   001820                     i2u688_41:
  4257   001820  EF14  F00C         	goto	i2l1195
  4258   001824                     i2u688_40:
  4259   001824                     
  4260                           ;MCAL_Layer/Interrupt/mcal_interrupt_manager.c: 218:         CCP1_ISR();
  4261   001824  EC13  F014         	call	_CCP1_ISR	;wreg free
  4262   001828                     i2l1195:
  4263                           
  4264                           ;MCAL_Layer/Interrupt/mcal_interrupt_manager.c: 223:     if((1 == PIE2bits.CCP2IE) && (1
      +                           == PIR2bits.CCP2IF)){
  4265   001828  A0A0               	btfss	160,0,c	;volatile
  4266   00182A  EF19  F00C         	goto	i2u689_41
  4267   00182E  EF1B  F00C         	goto	i2u689_40
  4268   001832                     i2u689_41:
  4269   001832  EF24  F00C         	goto	i2l1197
  4270   001836                     i2u689_40:
  4271   001836  A0A1               	btfss	161,0,c	;volatile
  4272   001838  EF20  F00C         	goto	i2u690_41
  4273   00183C  EF22  F00C         	goto	i2u690_40
  4274   001840                     i2u690_41:
  4275   001840  EF24  F00C         	goto	i2l1197
  4276   001844                     i2u690_40:
  4277   001844                     
  4278                           ;MCAL_Layer/Interrupt/mcal_interrupt_manager.c: 224:         CCP2_ISR();
  4279   001844  EC11  F014         	call	_CCP2_ISR	;wreg free
  4280   001848                     i2l1197:
  4281                           
  4282                           ;MCAL_Layer/Interrupt/mcal_interrupt_manager.c: 230:     if((1 == PIE1bits.TXIE) && (1 =
      +                          = PIR1bits.TXIF)){
  4283   001848  A89D               	btfss	157,4,c	;volatile
  4284   00184A  EF29  F00C         	goto	i2u691_41
  4285   00184E  EF2B  F00C         	goto	i2u691_40
  4286   001852                     i2u691_41:
  4287   001852  EF34  F00C         	goto	i2l1199
  4288   001856                     i2u691_40:
  4289   001856  A89E               	btfss	158,4,c	;volatile
  4290   001858  EF30  F00C         	goto	i2u692_41
  4291   00185C  EF32  F00C         	goto	i2u692_40
  4292   001860                     i2u692_41:
  4293   001860  EF34  F00C         	goto	i2l1199
  4294   001864                     i2u692_40:
  4295   001864                     
  4296                           ;MCAL_Layer/Interrupt/mcal_interrupt_manager.c: 231:         EUSART_TX_ISR();
  4297   001864  EC0F  F014         	call	_EUSART_TX_ISR	;wreg free
  4298   001868                     i2l1199:
  4299                           
  4300                           ;MCAL_Layer/Interrupt/mcal_interrupt_manager.c: 236:     if((1 == PIE1bits.RCIE) && (1 =
      +                          = PIR1bits.RCIF)){
  4301   001868  AA9D               	btfss	157,5,c	;volatile
  4302   00186A  EF39  F00C         	goto	i2u693_41
  4303   00186E  EF3B  F00C         	goto	i2u693_40
  4304   001872                     i2u693_41:
  4305   001872  EF44  F00C         	goto	i2l1201
  4306   001876                     i2u693_40:
  4307   001876  AA9E               	btfss	158,5,c	;volatile
  4308   001878  EF40  F00C         	goto	i2u694_41
  4309   00187C  EF42  F00C         	goto	i2u694_40
  4310   001880                     i2u694_41:
  4311   001880  EF44  F00C         	goto	i2l1201
  4312   001884                     i2u694_40:
  4313   001884                     
  4314                           ;MCAL_Layer/Interrupt/mcal_interrupt_manager.c: 237:         EUSART_RX_ISR();
  4315   001884  EC17  F014         	call	_EUSART_RX_ISR	;wreg free
  4316   001888                     i2l1201:
  4317                           
  4318                           ;MCAL_Layer/Interrupt/mcal_interrupt_manager.c: 242:     if((1 == PIE1bits.RCIE) && (1 =
      +                          = RCSTAbits.OERR)){
  4319   001888  AA9D               	btfss	157,5,c	;volatile
  4320   00188A  EF49  F00C         	goto	i2u695_41
  4321   00188E  EF4B  F00C         	goto	i2u695_40
  4322   001892                     i2u695_41:
  4323   001892  EF54  F00C         	goto	i2l1203
  4324   001896                     i2u695_40:
  4325   001896  A2AB               	btfss	171,1,c	;volatile
  4326   001898  EF50  F00C         	goto	i2u696_41
  4327   00189C  EF52  F00C         	goto	i2u696_40
  4328   0018A0                     i2u696_41:
  4329   0018A0  EF54  F00C         	goto	i2l1203
  4330   0018A4                     i2u696_40:
  4331   0018A4                     
  4332                           ;MCAL_Layer/Interrupt/mcal_interrupt_manager.c: 243:         EUSART_OVERRUN_ERROR_ISR();
  4333   0018A4  EC18  F014         	call	_EUSART_OVERRUN_ERROR_ISR	;wreg free
  4334   0018A8                     i2l1203:
  4335                           
  4336                           ;MCAL_Layer/Interrupt/mcal_interrupt_manager.c: 249:     if((1 == PIE1bits.RCIE) && (1 =
      +                          = RCSTAbits.FERR)){
  4337   0018A8  AA9D               	btfss	157,5,c	;volatile
  4338   0018AA  EF59  F00C         	goto	i2u697_41
  4339   0018AE  EF5B  F00C         	goto	i2u697_40
  4340   0018B2                     i2u697_41:
  4341   0018B2  EF64  F00C         	goto	i2l1205
  4342   0018B6                     i2u697_40:
  4343   0018B6  A4AB               	btfss	171,2,c	;volatile
  4344   0018B8  EF60  F00C         	goto	i2u698_41
  4345   0018BC  EF62  F00C         	goto	i2u698_40
  4346   0018C0                     i2u698_41:
  4347   0018C0  EF64  F00C         	goto	i2l1205
  4348   0018C4                     i2u698_40:
  4349   0018C4                     
  4350                           ;MCAL_Layer/Interrupt/mcal_interrupt_manager.c: 250:         EUSART_FRAMIN_ERROR_ISR();
  4351   0018C4  EC19  F014         	call	_EUSART_FRAMIN_ERROR_ISR	;wreg free
  4352   0018C8                     i2l1205:
  4353                           
  4354                           ;MCAL_Layer/Interrupt/mcal_interrupt_manager.c: 256:     if((1 == PIE1bits.SSPIE)){
  4355   0018C8  A69D               	btfss	157,3,c	;volatile
  4356   0018CA  EF69  F00C         	goto	i2u699_41
  4357   0018CE  EF6B  F00C         	goto	i2u699_40
  4358   0018D2                     i2u699_41:
  4359   0018D2  EF7D  F00C         	goto	i2l1212
  4360   0018D6                     i2u699_40:
  4361   0018D6                     
  4362                           ;MCAL_Layer/Interrupt/mcal_interrupt_manager.c: 257:         if((1 == PIR1bits.SSPIF)){
  4363   0018D6  A69E               	btfss	158,3,c	;volatile
  4364   0018D8  EF70  F00C         	goto	i2u700_41
  4365   0018DC  EF72  F00C         	goto	i2u700_40
  4366   0018E0                     i2u700_41:
  4367   0018E0  EF74  F00C         	goto	i2l1208
  4368   0018E4                     i2u700_40:
  4369   0018E4                     
  4370                           ;MCAL_Layer/Interrupt/mcal_interrupt_manager.c: 258:             MSSP_I2C_ISR();
  4371   0018E4  EC7A  F013         	call	_MSSP_I2C_ISR	;wreg free
  4372   0018E8                     i2l1208:
  4373                           
  4374                           ;MCAL_Layer/Interrupt/mcal_interrupt_manager.c: 260:         if((1 == PIR2bits.BCLIF)){
  4375   0018E8  A6A1               	btfss	161,3,c	;volatile
  4376   0018EA  EF79  F00C         	goto	i2u701_41
  4377   0018EE  EF7B  F00C         	goto	i2u701_40
  4378   0018F2                     i2u701_41:
  4379   0018F2  EF7D  F00C         	goto	i2l1212
  4380   0018F6                     i2u701_40:
  4381   0018F6                     
  4382                           ;MCAL_Layer/Interrupt/mcal_interrupt_manager.c: 261:             MSSP_I2C_BUS_COL_ISR();
  4383   0018F6  EC07  F014         	call	_MSSP_I2C_BUS_COL_ISR	;wreg free
  4384   0018FA                     i2l1212:
  4385   0018FA  C008  FFDA         	movff	??_InterruptManager+3,fsr2h
  4386   0018FE  C007  FFD9         	movff	??_InterruptManager+2,fsr2l
  4387   001902  C006  FFFB         	movff	??_InterruptManager+1,pclatu
  4388   001906  C005  FFFA         	movff	??_InterruptManager,pclath
  4389   00190A  9277               	bcf	int$flags,1,c	;clear compiler interrupt flag (level 2)
  4390   00190C  0011               	retfie		f
  4391   00190E                     __end_of_InterruptManager:
  4392                           	callstack 0
  4393                           
  4394 ;; *************** function _TIMER3_ISR *****************
  4395 ;; Defined at:
  4396 ;;		line 108 in file "MCAL_Layer/Timer3/hal_timer3.c"
  4397 ;; Parameters:    Size  Location     Type
  4398 ;;		None
  4399 ;; Auto vars:     Size  Location     Type
  4400 ;;		None
  4401 ;; Return value:  Size  Location     Type
  4402 ;;                  1    wreg      void 
  4403 ;; Registers used:
  4404 ;;		wreg, status,2
  4405 ;; Tracked objects:
  4406 ;;		On entry : 0/0
  4407 ;;		On exit  : 0/0
  4408 ;;		Unchanged: 0/0
  4409 ;; Data sizes:     COMRAM   BANK0   BANK1   BANK2   BANK3   BANK4   BANK5   BANK6   BANK7   BANK8   BANK9  BANK10  BANK1
      +1  BANK12  BANK13  BANK14  BANK15
  4410 ;;      Params:         0       0       0       0       0       0       0       0       0       0       0       0       
      +0       0       0       0       0
  4411 ;;      Locals:         0       0       0       0       0       0       0       0       0       0       0       0       
      +0       0       0       0       0
  4412 ;;      Temps:          0       0       0       0       0       0       0       0       0       0       0       0       
      +0       0       0       0       0
  4413 ;;      Totals:         0       0       0       0       0       0       0       0       0       0       0       0       
      +0       0       0       0       0
  4414 ;;Total ram usage:        0 bytes
  4415 ;; Hardware stack levels used: 1
  4416 ;; This function calls:
  4417 ;;		Nothing
  4418 ;; This function is called by:
  4419 ;;		_InterruptManager
  4420 ;; This function uses a non-reentrant model
  4421 ;;
  4422                           
  4423                           	psect	text16
  4424   0027D6                     __ptext16:
  4425                           	callstack 0
  4426   0027D6                     _TIMER3_ISR:
  4427                           	callstack 24
  4428   0027D6                     
  4429                           ;MCAL_Layer/Timer3/hal_timer3.c: 110:         (PIR2bits.TMR3IF = 0);
  4430   0027D6  92A1               	bcf	161,1,c	;volatile
  4431   0027D8                     
  4432                           ;MCAL_Layer/Timer3/hal_timer3.c: 112:         TMR3H = (timer3_preload) >> 8;
  4433   0027D8  5049               	movf	(_timer3_preload+1)^0,w,c
  4434   0027DA  6EB3               	movwf	179,c	;volatile
  4435   0027DC                     
  4436                           ;MCAL_Layer/Timer3/hal_timer3.c: 113:         TMR3L = (uint8)(timer3_preload);
  4437   0027DC  C048  FFB2         	movff	_timer3_preload,4018	;volatile
  4438   0027E0  0012               	return		;funcret
  4439   0027E2                     __end_of_TIMER3_ISR:
  4440                           	callstack 0
  4441                           
  4442 ;; *************** function _TIMER2_ISR *****************
  4443 ;; Defined at:
  4444 ;;		line 88 in file "MCAL_Layer/Timer2/hal_timer2.c"
  4445 ;; Parameters:    Size  Location     Type
  4446 ;;		None
  4447 ;; Auto vars:     Size  Location     Type
  4448 ;;		None
  4449 ;; Return value:  Size  Location     Type
  4450 ;;                  1    wreg      void 
  4451 ;; Registers used:
  4452 ;;		None
  4453 ;; Tracked objects:
  4454 ;;		On entry : 0/0
  4455 ;;		On exit  : 0/0
  4456 ;;		Unchanged: 0/0
  4457 ;; Data sizes:     COMRAM   BANK0   BANK1   BANK2   BANK3   BANK4   BANK5   BANK6   BANK7   BANK8   BANK9  BANK10  BANK1
      +1  BANK12  BANK13  BANK14  BANK15
  4458 ;;      Params:         0       0       0       0       0       0       0       0       0       0       0       0       
      +0       0       0       0       0
  4459 ;;      Locals:         0       0       0       0       0       0       0       0       0       0       0       0       
      +0       0       0       0       0
  4460 ;;      Temps:          0       0       0       0       0       0       0       0       0       0       0       0       
      +0       0       0       0       0
  4461 ;;      Totals:         0       0       0       0       0       0       0       0       0       0       0       0       
      +0       0       0       0       0
  4462 ;;Total ram usage:        0 bytes
  4463 ;; Hardware stack levels used: 1
  4464 ;; This function calls:
  4465 ;;		Nothing
  4466 ;; This function is called by:
  4467 ;;		_InterruptManager
  4468 ;; This function uses a non-reentrant model
  4469 ;;
  4470                           
  4471                           	psect	text17
  4472   0027FA                     __ptext17:
  4473                           	callstack 0
  4474   0027FA                     _TIMER2_ISR:
  4475                           	callstack 24
  4476   0027FA                     
  4477                           ;MCAL_Layer/Timer2/hal_timer2.c: 90:     (PIR1bits.TMR2IF = 0);
  4478   0027FA  929E               	bcf	158,1,c	;volatile
  4479                           
  4480                           ;MCAL_Layer/Timer2/hal_timer2.c: 91:     TMR2 = timer2_preload;
  4481   0027FC  C067  FFCC         	movff	_timer2_preload,4044	;volatile
  4482   002800  0012               	return		;funcret
  4483   002802                     __end_of_TIMER2_ISR:
  4484                           	callstack 0
  4485                           
  4486 ;; *************** function _TIMER1_ISR *****************
  4487 ;; Defined at:
  4488 ;;		line 105 in file "MCAL_Layer/Timer1/hal_timer1.c"
  4489 ;; Parameters:    Size  Location     Type
  4490 ;;		None
  4491 ;; Auto vars:     Size  Location     Type
  4492 ;;		None
  4493 ;; Return value:  Size  Location     Type
  4494 ;;                  1    wreg      void 
  4495 ;; Registers used:
  4496 ;;		wreg, status,2
  4497 ;; Tracked objects:
  4498 ;;		On entry : 0/0
  4499 ;;		On exit  : 0/0
  4500 ;;		Unchanged: 0/0
  4501 ;; Data sizes:     COMRAM   BANK0   BANK1   BANK2   BANK3   BANK4   BANK5   BANK6   BANK7   BANK8   BANK9  BANK10  BANK1
      +1  BANK12  BANK13  BANK14  BANK15
  4502 ;;      Params:         0       0       0       0       0       0       0       0       0       0       0       0       
      +0       0       0       0       0
  4503 ;;      Locals:         0       0       0       0       0       0       0       0       0       0       0       0       
      +0       0       0       0       0
  4504 ;;      Temps:          0       0       0       0       0       0       0       0       0       0       0       0       
      +0       0       0       0       0
  4505 ;;      Totals:         0       0       0       0       0       0       0       0       0       0       0       0       
      +0       0       0       0       0
  4506 ;;Total ram usage:        0 bytes
  4507 ;; Hardware stack levels used: 1
  4508 ;; This function calls:
  4509 ;;		Nothing
  4510 ;; This function is called by:
  4511 ;;		_InterruptManager
  4512 ;; This function uses a non-reentrant model
  4513 ;;
  4514                           
  4515                           	psect	text18
  4516   0027E2                     __ptext18:
  4517                           	callstack 0
  4518   0027E2                     _TIMER1_ISR:
  4519                           	callstack 24
  4520   0027E2                     
  4521                           ;MCAL_Layer/Timer1/hal_timer1.c: 107:     (PIR1bits.TMR1IF = 0);
  4522   0027E2  909E               	bcf	158,0,c	;volatile
  4523   0027E4                     
  4524                           ;MCAL_Layer/Timer1/hal_timer1.c: 108:     TMR1H = (timer1_preload) >> 8 ;
  4525   0027E4  504B               	movf	(_timer1_preload+1)^0,w,c
  4526   0027E6  6ECF               	movwf	207,c	;volatile
  4527   0027E8                     
  4528                           ;MCAL_Layer/Timer1/hal_timer1.c: 109:     TMR1L = (uint8) (timer1_preload);
  4529   0027E8  C04A  FFCE         	movff	_timer1_preload,4046	;volatile
  4530   0027EC  0012               	return		;funcret
  4531   0027EE                     __end_of_TIMER1_ISR:
  4532                           	callstack 0
  4533                           
  4534 ;; *************** function _TIMER0_ISR *****************
  4535 ;; Defined at:
  4536 ;;		line 105 in file "MCAL_Layer/Timer0/hal_timer0.c"
  4537 ;; Parameters:    Size  Location     Type
  4538 ;;		None
  4539 ;; Auto vars:     Size  Location     Type
  4540 ;;		None
  4541 ;; Return value:  Size  Location     Type
  4542 ;;                  1    wreg      void 
  4543 ;; Registers used:
  4544 ;;		wreg, status,2
  4545 ;; Tracked objects:
  4546 ;;		On entry : 0/0
  4547 ;;		On exit  : 0/0
  4548 ;;		Unchanged: 0/0
  4549 ;; Data sizes:     COMRAM   BANK0   BANK1   BANK2   BANK3   BANK4   BANK5   BANK6   BANK7   BANK8   BANK9  BANK10  BANK1
      +1  BANK12  BANK13  BANK14  BANK15
  4550 ;;      Params:         0       0       0       0       0       0       0       0       0       0       0       0       
      +0       0       0       0       0
  4551 ;;      Locals:         0       0       0       0       0       0       0       0       0       0       0       0       
      +0       0       0       0       0
  4552 ;;      Temps:          0       0       0       0       0       0       0       0       0       0       0       0       
      +0       0       0       0       0
  4553 ;;      Totals:         0       0       0       0       0       0       0       0       0       0       0       0       
      +0       0       0       0       0
  4554 ;;Total ram usage:        0 bytes
  4555 ;; Hardware stack levels used: 1
  4556 ;; This function calls:
  4557 ;;		Nothing
  4558 ;; This function is called by:
  4559 ;;		_InterruptManager
  4560 ;; This function uses a non-reentrant model
  4561 ;;
  4562                           
  4563                           	psect	text19
  4564   0027EE                     __ptext19:
  4565                           	callstack 0
  4566   0027EE                     _TIMER0_ISR:
  4567                           	callstack 24
  4568   0027EE                     
  4569                           ;MCAL_Layer/Timer0/hal_timer0.c: 107:     (INTCONbits.TMR0IF = 0);
  4570   0027EE  94F2               	bcf	242,2,c	;volatile
  4571   0027F0                     
  4572                           ;MCAL_Layer/Timer0/hal_timer0.c: 108:     TMR0H = (timer0_preload) >> 8 ;
  4573   0027F0  504D               	movf	(_timer0_preload+1)^0,w,c
  4574   0027F2  6ED7               	movwf	215,c	;volatile
  4575   0027F4                     
  4576                           ;MCAL_Layer/Timer0/hal_timer0.c: 109:     TMR0L = (uint8)(timer0_preload);
  4577   0027F4  C04C  FFD6         	movff	_timer0_preload,4054	;volatile
  4578   0027F8  0012               	return		;funcret
  4579   0027FA                     __end_of_TIMER0_ISR:
  4580                           	callstack 0
  4581                           
  4582 ;; *************** function _RB7_ISR *****************
  4583 ;; Defined at:
  4584 ;;		line 194 in file "MCAL_Layer/Interrupt/mcal_external_interrupt.c"
  4585 ;; Parameters:    Size  Location     Type
  4586 ;;  RB7_Source      1    wreg     unsigned char 
  4587 ;; Auto vars:     Size  Location     Type
  4588 ;;  RB7_Source      1    0[COMRAM] unsigned char 
  4589 ;; Return value:  Size  Location     Type
  4590 ;;                  1    wreg      void 
  4591 ;; Registers used:
  4592 ;;		wreg, status,2, status,0
  4593 ;; Tracked objects:
  4594 ;;		On entry : 0/0
  4595 ;;		On exit  : 0/0
  4596 ;;		Unchanged: 0/0
  4597 ;; Data sizes:     COMRAM   BANK0   BANK1   BANK2   BANK3   BANK4   BANK5   BANK6   BANK7   BANK8   BANK9  BANK10  BANK1
      +1  BANK12  BANK13  BANK14  BANK15
  4598 ;;      Params:         0       0       0       0       0       0       0       0       0       0       0       0       
      +0       0       0       0       0
  4599 ;;      Locals:         1       0       0       0       0       0       0       0       0       0       0       0       
      +0       0       0       0       0
  4600 ;;      Temps:          0       0       0       0       0       0       0       0       0       0       0       0       
      +0       0       0       0       0
  4601 ;;      Totals:         1       0       0       0       0       0       0       0       0       0       0       0       
      +0       0       0       0       0
  4602 ;;Total ram usage:        1 bytes
  4603 ;; Hardware stack levels used: 1
  4604 ;; This function calls:
  4605 ;;		Nothing
  4606 ;; This function is called by:
  4607 ;;		_InterruptManager
  4608 ;; This function uses a non-reentrant model
  4609 ;;
  4610                           
  4611                           	psect	text20
  4612   00274A                     __ptext20:
  4613                           	callstack 0
  4614   00274A                     _RB7_ISR:
  4615                           	callstack 24
  4616                           
  4617                           ;incstack = 0
  4618                           ;RB7_ISR@RB7_Source stored from wreg
  4619   00274A  6E01               	movwf	RB7_ISR@RB7_Source^0,c
  4620   00274C                     
  4621                           ;MCAL_Layer/Interrupt/mcal_external_interrupt.c: 196:     (INTCONbits.RBIF = 0);
  4622   00274C  90F2               	bcf	242,0,c	;volatile
  4623   00274E                     
  4624                           ;MCAL_Layer/Interrupt/mcal_external_interrupt.c: 200:     if(0== RB7_Source){
  4625   00274E  5001               	movf	RB7_ISR@RB7_Source^0,w,c
  4626   002750  A4D8               	btfss	status,2,c
  4627   002752  EFAD  F013         	goto	i2u565_41
  4628   002756  EFAF  F013         	goto	i2u565_40
  4629   00275A                     i2u565_41:
  4630   00275A  EFB1  F013         	goto	i2l6408
  4631   00275E                     i2u565_40:
  4632   00275E  EFB1  F013         	goto	i2l984
  4633   002762                     i2l6408:
  4634   002762                     i2l984:
  4635   002762  0012               	return		;funcret
  4636   002764                     __end_of_RB7_ISR:
  4637                           	callstack 0
  4638                           
  4639 ;; *************** function _RB6_ISR *****************
  4640 ;; Defined at:
  4641 ;;		line 176 in file "MCAL_Layer/Interrupt/mcal_external_interrupt.c"
  4642 ;; Parameters:    Size  Location     Type
  4643 ;;  RB6_Source      1    wreg     unsigned char 
  4644 ;; Auto vars:     Size  Location     Type
  4645 ;;  RB6_Source      1    0[COMRAM] unsigned char 
  4646 ;; Return value:  Size  Location     Type
  4647 ;;                  1    wreg      void 
  4648 ;; Registers used:
  4649 ;;		wreg, status,2, status,0
  4650 ;; Tracked objects:
  4651 ;;		On entry : 0/0
  4652 ;;		On exit  : 0/0
  4653 ;;		Unchanged: 0/0
  4654 ;; Data sizes:     COMRAM   BANK0   BANK1   BANK2   BANK3   BANK4   BANK5   BANK6   BANK7   BANK8   BANK9  BANK10  BANK1
      +1  BANK12  BANK13  BANK14  BANK15
  4655 ;;      Params:         0       0       0       0       0       0       0       0       0       0       0       0       
      +0       0       0       0       0
  4656 ;;      Locals:         1       0       0       0       0       0       0       0       0       0       0       0       
      +0       0       0       0       0
  4657 ;;      Temps:          0       0       0       0       0       0       0       0       0       0       0       0       
      +0       0       0       0       0
  4658 ;;      Totals:         1       0       0       0       0       0       0       0       0       0       0       0       
      +0       0       0       0       0
  4659 ;;Total ram usage:        1 bytes
  4660 ;; Hardware stack levels used: 1
  4661 ;; This function calls:
  4662 ;;		Nothing
  4663 ;; This function is called by:
  4664 ;;		_InterruptManager
  4665 ;; This function uses a non-reentrant model
  4666 ;;
  4667                           
  4668                           	psect	text21
  4669   002764                     __ptext21:
  4670                           	callstack 0
  4671   002764                     _RB6_ISR:
  4672                           	callstack 24
  4673                           
  4674                           ;incstack = 0
  4675                           ;RB6_ISR@RB6_Source stored from wreg
  4676   002764  6E01               	movwf	RB6_ISR@RB6_Source^0,c
  4677   002766                     
  4678                           ;MCAL_Layer/Interrupt/mcal_external_interrupt.c: 178:     (INTCONbits.RBIF = 0);
  4679   002766  90F2               	bcf	242,0,c	;volatile
  4680   002768                     
  4681                           ;MCAL_Layer/Interrupt/mcal_external_interrupt.c: 182:     if(0== RB6_Source){
  4682   002768  5001               	movf	RB6_ISR@RB6_Source^0,w,c
  4683   00276A  A4D8               	btfss	status,2,c
  4684   00276C  EFBA  F013         	goto	i2u564_41
  4685   002770  EFBC  F013         	goto	i2u564_40
  4686   002774                     i2u564_41:
  4687   002774  EFBE  F013         	goto	i2l6396
  4688   002778                     i2u564_40:
  4689   002778  EFBE  F013         	goto	i2l975
  4690   00277C                     i2l6396:
  4691   00277C                     i2l975:
  4692   00277C  0012               	return		;funcret
  4693   00277E                     __end_of_RB6_ISR:
  4694                           	callstack 0
  4695                           
  4696 ;; *************** function _RB5_ISR *****************
  4697 ;; Defined at:
  4698 ;;		line 158 in file "MCAL_Layer/Interrupt/mcal_external_interrupt.c"
  4699 ;; Parameters:    Size  Location     Type
  4700 ;;  RB5_Source      1    wreg     unsigned char 
  4701 ;; Auto vars:     Size  Location     Type
  4702 ;;  RB5_Source      1    0[COMRAM] unsigned char 
  4703 ;; Return value:  Size  Location     Type
  4704 ;;                  1    wreg      void 
  4705 ;; Registers used:
  4706 ;;		wreg, status,2, status,0
  4707 ;; Tracked objects:
  4708 ;;		On entry : 0/0
  4709 ;;		On exit  : 0/0
  4710 ;;		Unchanged: 0/0
  4711 ;; Data sizes:     COMRAM   BANK0   BANK1   BANK2   BANK3   BANK4   BANK5   BANK6   BANK7   BANK8   BANK9  BANK10  BANK1
      +1  BANK12  BANK13  BANK14  BANK15
  4712 ;;      Params:         0       0       0       0       0       0       0       0       0       0       0       0       
      +0       0       0       0       0
  4713 ;;      Locals:         1       0       0       0       0       0       0       0       0       0       0       0       
      +0       0       0       0       0
  4714 ;;      Temps:          0       0       0       0       0       0       0       0       0       0       0       0       
      +0       0       0       0       0
  4715 ;;      Totals:         1       0       0       0       0       0       0       0       0       0       0       0       
      +0       0       0       0       0
  4716 ;;Total ram usage:        1 bytes
  4717 ;; Hardware stack levels used: 1
  4718 ;; This function calls:
  4719 ;;		Nothing
  4720 ;; This function is called by:
  4721 ;;		_InterruptManager
  4722 ;; This function uses a non-reentrant model
  4723 ;;
  4724                           
  4725                           	psect	text22
  4726   00277E                     __ptext22:
  4727                           	callstack 0
  4728   00277E                     _RB5_ISR:
  4729                           	callstack 24
  4730                           
  4731                           ;incstack = 0
  4732                           ;RB5_ISR@RB5_Source stored from wreg
  4733   00277E  6E01               	movwf	RB5_ISR@RB5_Source^0,c
  4734   002780                     
  4735                           ;MCAL_Layer/Interrupt/mcal_external_interrupt.c: 160:     (INTCONbits.RBIF = 0);
  4736   002780  90F2               	bcf	242,0,c	;volatile
  4737   002782                     
  4738                           ;MCAL_Layer/Interrupt/mcal_external_interrupt.c: 164:     if(0== RB5_Source){
  4739   002782  5001               	movf	RB5_ISR@RB5_Source^0,w,c
  4740   002784  A4D8               	btfss	status,2,c
  4741   002786  EFC7  F013         	goto	i2u563_41
  4742   00278A  EFC9  F013         	goto	i2u563_40
  4743   00278E                     i2u563_41:
  4744   00278E  EFCB  F013         	goto	i2l6384
  4745   002792                     i2u563_40:
  4746   002792  EFCB  F013         	goto	i2l966
  4747   002796                     i2l6384:
  4748   002796                     i2l966:
  4749   002796  0012               	return		;funcret
  4750   002798                     __end_of_RB5_ISR:
  4751                           	callstack 0
  4752                           
  4753 ;; *************** function _RB4_ISR *****************
  4754 ;; Defined at:
  4755 ;;		line 140 in file "MCAL_Layer/Interrupt/mcal_external_interrupt.c"
  4756 ;; Parameters:    Size  Location     Type
  4757 ;;  RB4_Source      1    wreg     unsigned char 
  4758 ;; Auto vars:     Size  Location     Type
  4759 ;;  RB4_Source      1    0[COMRAM] unsigned char 
  4760 ;; Return value:  Size  Location     Type
  4761 ;;                  1    wreg      void 
  4762 ;; Registers used:
  4763 ;;		wreg, status,2, status,0
  4764 ;; Tracked objects:
  4765 ;;		On entry : 0/0
  4766 ;;		On exit  : 0/0
  4767 ;;		Unchanged: 0/0
  4768 ;; Data sizes:     COMRAM   BANK0   BANK1   BANK2   BANK3   BANK4   BANK5   BANK6   BANK7   BANK8   BANK9  BANK10  BANK1
      +1  BANK12  BANK13  BANK14  BANK15
  4769 ;;      Params:         0       0       0       0       0       0       0       0       0       0       0       0       
      +0       0       0       0       0
  4770 ;;      Locals:         1       0       0       0       0       0       0       0       0       0       0       0       
      +0       0       0       0       0
  4771 ;;      Temps:          0       0       0       0       0       0       0       0       0       0       0       0       
      +0       0       0       0       0
  4772 ;;      Totals:         1       0       0       0       0       0       0       0       0       0       0       0       
      +0       0       0       0       0
  4773 ;;Total ram usage:        1 bytes
  4774 ;; Hardware stack levels used: 1
  4775 ;; This function calls:
  4776 ;;		Nothing
  4777 ;; This function is called by:
  4778 ;;		_InterruptManager
  4779 ;; This function uses a non-reentrant model
  4780 ;;
  4781                           
  4782                           	psect	text23
  4783   002798                     __ptext23:
  4784                           	callstack 0
  4785   002798                     _RB4_ISR:
  4786                           	callstack 24
  4787                           
  4788                           ;incstack = 0
  4789                           ;RB4_ISR@RB4_Source stored from wreg
  4790   002798  6E01               	movwf	RB4_ISR@RB4_Source^0,c
  4791   00279A                     
  4792                           ;MCAL_Layer/Interrupt/mcal_external_interrupt.c: 142:     (INTCONbits.RBIF = 0);
  4793   00279A  90F2               	bcf	242,0,c	;volatile
  4794   00279C                     
  4795                           ;MCAL_Layer/Interrupt/mcal_external_interrupt.c: 146:     if(0== RB4_Source){
  4796   00279C  5001               	movf	RB4_ISR@RB4_Source^0,w,c
  4797   00279E  A4D8               	btfss	status,2,c
  4798   0027A0  EFD4  F013         	goto	i2u147_41
  4799   0027A4  EFD6  F013         	goto	i2u147_40
  4800   0027A8                     i2u147_41:
  4801   0027A8  EFD8  F013         	goto	i2l3310
  4802   0027AC                     i2u147_40:
  4803   0027AC  EFD8  F013         	goto	i2l957
  4804   0027B0                     i2l3310:
  4805   0027B0                     i2l957:
  4806   0027B0  0012               	return		;funcret
  4807   0027B2                     __end_of_RB4_ISR:
  4808                           	callstack 0
  4809                           
  4810 ;; *************** function _MSSP_I2C_ISR *****************
  4811 ;; Defined at:
  4812 ;;		line 212 in file "MCAL_Layer/I2C/hal_i2c.c"
  4813 ;; Parameters:    Size  Location     Type
  4814 ;;		None
  4815 ;; Auto vars:     Size  Location     Type
  4816 ;;		None
  4817 ;; Return value:  Size  Location     Type
  4818 ;;                  1    wreg      void 
  4819 ;; Registers used:
  4820 ;;		wreg, fsr2l, fsr2h, status,2, status,0, pcl, pclath, pclatu, tosl, cstack
  4821 ;; Tracked objects:
  4822 ;;		On entry : 0/0
  4823 ;;		On exit  : 0/0
  4824 ;;		Unchanged: 0/0
  4825 ;; Data sizes:     COMRAM   BANK0   BANK1   BANK2   BANK3   BANK4   BANK5   BANK6   BANK7   BANK8   BANK9  BANK10  BANK1
      +1  BANK12  BANK13  BANK14  BANK15
  4826 ;;      Params:         0       0       0       0       0       0       0       0       0       0       0       0       
      +0       0       0       0       0
  4827 ;;      Locals:         0       0       0       0       0       0       0       0       0       0       0       0       
      +0       0       0       0       0
  4828 ;;      Temps:          0       0       0       0       0       0       0       0       0       0       0       0       
      +0       0       0       0       0
  4829 ;;      Totals:         0       0       0       0       0       0       0       0       0       0       0       0       
      +0       0       0       0       0
  4830 ;;Total ram usage:        0 bytes
  4831 ;; Hardware stack levels used: 1
  4832 ;; Hardware stack levels required when called: 2
  4833 ;; This function calls:
  4834 ;;		Absolute function
  4835 ;;		_MSSP_I2C_DefaultInterruptHandler
  4836 ;; This function is called by:
  4837 ;;		_InterruptManager
  4838 ;; This function uses a non-reentrant model
  4839 ;;
  4840                           
  4841                           	psect	text24
  4842   0026F4                     __ptext24:
  4843                           	callstack 0
  4844   0026F4                     _MSSP_I2C_ISR:
  4845                           	callstack 22
  4846   0026F4                     
  4847                           ;MCAL_Layer/I2C/hal_i2c.c: 214:     (PIR1bits.SSPIF = 0);
  4848   0026F4  969E               	bcf	158,3,c	;volatile
  4849   0026F6                     
  4850                           ;MCAL_Layer/I2C/hal_i2c.c: 215:     if(I2CInterruptHandler){
  4851   0026F6  505C               	movf	_I2CInterruptHandler^0,w,c
  4852   0026F8  105D               	iorwf	(_I2CInterruptHandler+1)^0,w,c
  4853   0026FA  B4D8               	btfsc	status,2,c
  4854   0026FC  EF82  F013         	goto	i2u561_41
  4855   002700  EF84  F013         	goto	i2u561_40
  4856   002704                     i2u561_41:
  4857   002704  EF90  F013         	goto	i2l860
  4858   002708                     i2u561_40:
  4859   002708                     
  4860                           ;MCAL_Layer/I2C/hal_i2c.c: 216:         I2CInterruptHandler();
  4861   002708  D802               	call	i2u562_48
  4862   00270A  EF90  F013         	goto	i2u562_49
  4863   00270E                     i2u562_48:
  4864   00270E  0005               	push	
  4865   002710  6EFA               	movwf	pclath,c
  4866   002712  505C               	movf	_I2CInterruptHandler^0,w,c
  4867   002714  6EFD               	movwf	tosl,c
  4868   002716  505D               	movf	(_I2CInterruptHandler+1)^0,w,c
  4869   002718  6EFE               	movwf	tosh,c
  4870   00271A  6AFF               	clrf	tosu,c
  4871   00271C  50FA               	movf	pclath,w,c
  4872   00271E  0012               	return		;indir
  4873   002720                     i2u562_49:
  4874   002720                     i2l860:
  4875   002720  0012               	return		;funcret
  4876   002722                     __end_of_MSSP_I2C_ISR:
  4877                           	callstack 0
  4878                           
  4879 ;; *************** function _MSSP_I2C_DefaultInterruptHandler *****************
  4880 ;; Defined at:
  4881 ;;		line 19 in file "application.c"
  4882 ;; Parameters:    Size  Location     Type
  4883 ;;		None
  4884 ;; Auto vars:     Size  Location     Type
  4885 ;;		None
  4886 ;; Return value:  Size  Location     Type
  4887 ;;                  1    wreg      void 
  4888 ;; Registers used:
  4889 ;;		wreg, fsr2l, fsr2h, status,2, status,0, cstack
  4890 ;; Tracked objects:
  4891 ;;		On entry : 0/0
  4892 ;;		On exit  : 0/0
  4893 ;;		Unchanged: 0/0
  4894 ;; Data sizes:     COMRAM   BANK0   BANK1   BANK2   BANK3   BANK4   BANK5   BANK6   BANK7   BANK8   BANK9  BANK10  BANK1
      +1  BANK12  BANK13  BANK14  BANK15
  4895 ;;      Params:         0       0       0       0       0       0       0       0       0       0       0       0       
      +0       0       0       0       0
  4896 ;;      Locals:         0       0       0       0       0       0       0       0       0       0       0       0       
      +0       0       0       0       0
  4897 ;;      Temps:          0       0       0       0       0       0       0       0       0       0       0       0       
      +0       0       0       0       0
  4898 ;;      Totals:         0       0       0       0       0       0       0       0       0       0       0       0       
      +0       0       0       0       0
  4899 ;;Total ram usage:        0 bytes
  4900 ;; Hardware stack levels used: 1
  4901 ;; Hardware stack levels required when called: 1
  4902 ;; This function calls:
  4903 ;;		_MSSP_I2C_SLAVE_Read_Write
  4904 ;; This function is called by:
  4905 ;;		_main
  4906 ;;		_MSSP_I2C_ISR
  4907 ;; This function uses a non-reentrant model
  4908 ;;
  4909                           
  4910                           	psect	text25
  4911   0027B2                     __ptext25:
  4912                           	callstack 0
  4913   0027B2                     _MSSP_I2C_DefaultInterruptHandler:
  4914                           	callstack 22
  4915   0027B2                     
  4916                           ;application.c: 27:     MSSP_I2C_SLAVE_Read_Write(&i2c_obj, &i2c_slave_2rec);
  4917   0027B2  0EA0               	movlw	low _i2c_obj
  4918   0027B4  6E01               	movwf	MSSP_I2C_SLAVE_Read_Write@i2c_obj^0,c
  4919   0027B6  0E00               	movlw	high _i2c_obj
  4920   0027B8  6E02               	movwf	(MSSP_I2C_SLAVE_Read_Write@i2c_obj+1)^0,c
  4921   0027BA  0E6F               	movlw	low _i2c_slave_2rec
  4922   0027BC  6E03               	movwf	MSSP_I2C_SLAVE_Read_Write@i2c_data^0,c
  4923   0027BE  0E00               	movlw	high _i2c_slave_2rec
  4924   0027C0  6E04               	movwf	(MSSP_I2C_SLAVE_Read_Write@i2c_data+1)^0,c
  4925   0027C2  EC58  F013         	call	_MSSP_I2C_SLAVE_Read_Write	;wreg free
  4926   0027C6  0012               	return		;funcret
  4927   0027C8                     __end_of_MSSP_I2C_DefaultInterruptHandler:
  4928                           	callstack 0
  4929                           
  4930 ;; *************** function _MSSP_I2C_SLAVE_Read_Write *****************
  4931 ;; Defined at:
  4932 ;;		line 193 in file "MCAL_Layer/I2C/hal_i2c.c"
  4933 ;; Parameters:    Size  Location     Type
  4934 ;;  i2c_obj         2    0[COMRAM] PTR const struct .
  4935 ;;		 -> i2c_obj(13), 
  4936 ;;  i2c_data        2    2[COMRAM] PTR unsigned char 
  4937 ;;		 -> i2c_slave_2rec(1), 
  4938 ;; Auto vars:     Size  Location     Type
  4939 ;;  dummy_buffer    1    0        unsigned char 
  4940 ;; Return value:  Size  Location     Type
  4941 ;;                  1    wreg      unsigned char 
  4942 ;; Registers used:
  4943 ;;		wreg, fsr2l, fsr2h
  4944 ;; Tracked objects:
  4945 ;;		On entry : 0/0
  4946 ;;		On exit  : 0/0
  4947 ;;		Unchanged: 0/0
  4948 ;; Data sizes:     COMRAM   BANK0   BANK1   BANK2   BANK3   BANK4   BANK5   BANK6   BANK7   BANK8   BANK9  BANK10  BANK1
      +1  BANK12  BANK13  BANK14  BANK15
  4949 ;;      Params:         4       0       0       0       0       0       0       0       0       0       0       0       
      +0       0       0       0       0
  4950 ;;      Locals:         0       0       0       0       0       0       0       0       0       0       0       0       
      +0       0       0       0       0
  4951 ;;      Temps:          0       0       0       0       0       0       0       0       0       0       0       0       
      +0       0       0       0       0
  4952 ;;      Totals:         4       0       0       0       0       0       0       0       0       0       0       0       
      +0       0       0       0       0
  4953 ;;Total ram usage:        4 bytes
  4954 ;; Hardware stack levels used: 1
  4955 ;; This function calls:
  4956 ;;		Nothing
  4957 ;; This function is called by:
  4958 ;;		_MSSP_I2C_DefaultInterruptHandler
  4959 ;; This function uses a non-reentrant model
  4960 ;;
  4961                           
  4962                           	psect	text26
  4963   0026B0                     __ptext26:
  4964                           	callstack 0
  4965   0026B0                     _MSSP_I2C_SLAVE_Read_Write:
  4966                           	callstack 22
  4967   0026B0                     
  4968                           ;MCAL_Layer/I2C/hal_i2c.c: 195:     (SSPCON1bits.CKP = 0);
  4969   0026B0  98C6               	bcf	198,4,c	;volatile
  4970                           
  4971                           ;MCAL_Layer/I2C/hal_i2c.c: 197:     if((SSPSTATbits.R_nW == 0) && (SSPSTATbits.D_nA == 0
      +                          )){
  4972   0026B2  B4C7               	btfsc	199,2,c	;volatile
  4973   0026B4  EF5E  F013         	goto	i2u438_41
  4974   0026B8  EF60  F013         	goto	i2u438_40
  4975   0026BC                     i2u438_41:
  4976   0026BC  EF77  F013         	goto	i2l848
  4977   0026C0                     i2u438_40:
  4978   0026C0  BAC7               	btfsc	199,5,c	;volatile
  4979   0026C2  EF65  F013         	goto	i2u439_41
  4980   0026C6  EF67  F013         	goto	i2u439_40
  4981   0026CA                     i2u439_41:
  4982   0026CA  EF77  F013         	goto	i2l848
  4983   0026CE                     i2u439_40:
  4984   0026CE  50C9               	movf	201,w,c	;volatile
  4985   0026D0                     i2l849:
  4986   0026D0  A0C7               	btfss	199,0,c	;volatile
  4987   0026D2  EF6D  F013         	goto	i2u440_41
  4988   0026D6  EF6F  F013         	goto	i2u440_40
  4989   0026DA                     i2u440_41:
  4990   0026DA  EF68  F013         	goto	i2l849
  4991   0026DE                     i2u440_40:
  4992   0026DE                     
  4993                           ;MCAL_Layer/I2C/hal_i2c.c: 201:             *i2c_data = SSPBUF;
  4994   0026DE  C003  FFD9         	movff	MSSP_I2C_SLAVE_Read_Write@i2c_data,fsr2l
  4995   0026E2  C004  FFDA         	movff	MSSP_I2C_SLAVE_Read_Write@i2c_data+1,fsr2h
  4996   0026E6  CFC9 FFDF          	movff	4041,indf2	;volatile
  4997                           
  4998                           ;MCAL_Layer/I2C/hal_i2c.c: 202:     }else if(SSPSTATbits.R_nW == 1){
  4999   0026EA  EF78  F013         	goto	i2l852
  5000   0026EE                     i2l848:
  5001   0026EE  50C7               	movf	199,w,c	;volatile
  5002   0026F0                     i2l852:
  5003                           
  5004                           ;MCAL_Layer/I2C/hal_i2c.c: 207:     (SSPCON1bits.CKP = 1);
  5005   0026F0  88C6               	bsf	198,4,c	;volatile
  5006   0026F2  0012               	return		;funcret
  5007   0026F4                     __end_of_MSSP_I2C_SLAVE_Read_Write:
  5008                           	callstack 0
  5009                           
  5010 ;; *************** function _MSSP_I2C_BUS_COL_ISR *****************
  5011 ;; Defined at:
  5012 ;;		line 220 in file "MCAL_Layer/I2C/hal_i2c.c"
  5013 ;; Parameters:    Size  Location     Type
  5014 ;;		None
  5015 ;; Auto vars:     Size  Location     Type
  5016 ;;		None
  5017 ;; Return value:  Size  Location     Type
  5018 ;;                  1    wreg      void 
  5019 ;; Registers used:
  5020 ;;		None
  5021 ;; Tracked objects:
  5022 ;;		On entry : 0/0
  5023 ;;		On exit  : 0/0
  5024 ;;		Unchanged: 0/0
  5025 ;; Data sizes:     COMRAM   BANK0   BANK1   BANK2   BANK3   BANK4   BANK5   BANK6   BANK7   BANK8   BANK9  BANK10  BANK1
      +1  BANK12  BANK13  BANK14  BANK15
  5026 ;;      Params:         0       0       0       0       0       0       0       0       0       0       0       0       
      +0       0       0       0       0
  5027 ;;      Locals:         0       0       0       0       0       0       0       0       0       0       0       0       
      +0       0       0       0       0
  5028 ;;      Temps:          0       0       0       0       0       0       0       0       0       0       0       0       
      +0       0       0       0       0
  5029 ;;      Totals:         0       0       0       0       0       0       0       0       0       0       0       0       
      +0       0       0       0       0
  5030 ;;Total ram usage:        0 bytes
  5031 ;; Hardware stack levels used: 1
  5032 ;; This function calls:
  5033 ;;		Nothing
  5034 ;; This function is called by:
  5035 ;;		_InterruptManager
  5036 ;; This function uses a non-reentrant model
  5037 ;;
  5038                           
  5039                           	psect	text27
  5040   00280E                     __ptext27:
  5041                           	callstack 0
  5042   00280E                     _MSSP_I2C_BUS_COL_ISR:
  5043                           	callstack 24
  5044   00280E                     
  5045                           ;MCAL_Layer/I2C/hal_i2c.c: 222:     (PIR2bits.BCLIF = 0);
  5046   00280E  96A1               	bcf	161,3,c	;volatile
  5047   002810  0012               	return		;funcret
  5048   002812                     __end_of_MSSP_I2C_BUS_COL_ISR:
  5049                           	callstack 0
  5050                           
  5051 ;; *************** function _INT2_ISR *****************
  5052 ;; Defined at:
  5053 ;;		line 88 in file "MCAL_Layer/Interrupt/mcal_external_interrupt.c"
  5054 ;; Parameters:    Size  Location     Type
  5055 ;;		None
  5056 ;; Auto vars:     Size  Location     Type
  5057 ;;		None
  5058 ;; Return value:  Size  Location     Type
  5059 ;;                  1    wreg      void 
  5060 ;; Registers used:
  5061 ;;		None
  5062 ;; Tracked objects:
  5063 ;;		On entry : 0/0
  5064 ;;		On exit  : 0/0
  5065 ;;		Unchanged: 0/0
  5066 ;; Data sizes:     COMRAM   BANK0   BANK1   BANK2   BANK3   BANK4   BANK5   BANK6   BANK7   BANK8   BANK9  BANK10  BANK1
      +1  BANK12  BANK13  BANK14  BANK15
  5067 ;;      Params:         0       0       0       0       0       0       0       0       0       0       0       0       
      +0       0       0       0       0
  5068 ;;      Locals:         0       0       0       0       0       0       0       0       0       0       0       0       
      +0       0       0       0       0
  5069 ;;      Temps:          0       0       0       0       0       0       0       0       0       0       0       0       
      +0       0       0       0       0
  5070 ;;      Totals:         0       0       0       0       0       0       0       0       0       0       0       0       
      +0       0       0       0       0
  5071 ;;Total ram usage:        0 bytes
  5072 ;; Hardware stack levels used: 1
  5073 ;; This function calls:
  5074 ;;		Nothing
  5075 ;; This function is called by:
  5076 ;;		_InterruptManager
  5077 ;; This function uses a non-reentrant model
  5078 ;;
  5079                           
  5080                           	psect	text28
  5081   002812                     __ptext28:
  5082                           	callstack 0
  5083   002812                     _INT2_ISR:
  5084                           	callstack 24
  5085   002812                     
  5086                           ;MCAL_Layer/Interrupt/mcal_external_interrupt.c: 90:     (INTCON3bits.INT2IF = 0);
  5087   002812  92F0               	bcf	240,1,c	;volatile
  5088   002814  0012               	return		;funcret
  5089   002816                     __end_of_INT2_ISR:
  5090                           	callstack 0
  5091                           
  5092 ;; *************** function _INT1_ISR *****************
  5093 ;; Defined at:
  5094 ;;		line 78 in file "MCAL_Layer/Interrupt/mcal_external_interrupt.c"
  5095 ;; Parameters:    Size  Location     Type
  5096 ;;		None
  5097 ;; Auto vars:     Size  Location     Type
  5098 ;;		None
  5099 ;; Return value:  Size  Location     Type
  5100 ;;                  1    wreg      void 
  5101 ;; Registers used:
  5102 ;;		None
  5103 ;; Tracked objects:
  5104 ;;		On entry : 0/0
  5105 ;;		On exit  : 0/0
  5106 ;;		Unchanged: 0/0
  5107 ;; Data sizes:     COMRAM   BANK0   BANK1   BANK2   BANK3   BANK4   BANK5   BANK6   BANK7   BANK8   BANK9  BANK10  BANK1
      +1  BANK12  BANK13  BANK14  BANK15
  5108 ;;      Params:         0       0       0       0       0       0       0       0       0       0       0       0       
      +0       0       0       0       0
  5109 ;;      Locals:         0       0       0       0       0       0       0       0       0       0       0       0       
      +0       0       0       0       0
  5110 ;;      Temps:          0       0       0       0       0       0       0       0       0       0       0       0       
      +0       0       0       0       0
  5111 ;;      Totals:         0       0       0       0       0       0       0       0       0       0       0       0       
      +0       0       0       0       0
  5112 ;;Total ram usage:        0 bytes
  5113 ;; Hardware stack levels used: 1
  5114 ;; This function calls:
  5115 ;;		Nothing
  5116 ;; This function is called by:
  5117 ;;		_InterruptManager
  5118 ;; This function uses a non-reentrant model
  5119 ;;
  5120                           
  5121                           	psect	text29
  5122   002816                     __ptext29:
  5123                           	callstack 0
  5124   002816                     _INT1_ISR:
  5125                           	callstack 24
  5126   002816                     
  5127                           ;MCAL_Layer/Interrupt/mcal_external_interrupt.c: 80:     (INTCON3bits.INT1IF = 0);
  5128   002816  90F0               	bcf	240,0,c	;volatile
  5129   002818  0012               	return		;funcret
  5130   00281A                     __end_of_INT1_ISR:
  5131                           	callstack 0
  5132                           
  5133 ;; *************** function _INT0_ISR *****************
  5134 ;; Defined at:
  5135 ;;		line 68 in file "MCAL_Layer/Interrupt/mcal_external_interrupt.c"
  5136 ;; Parameters:    Size  Location     Type
  5137 ;;		None
  5138 ;; Auto vars:     Size  Location     Type
  5139 ;;		None
  5140 ;; Return value:  Size  Location     Type
  5141 ;;                  1    wreg      void 
  5142 ;; Registers used:
  5143 ;;		None
  5144 ;; Tracked objects:
  5145 ;;		On entry : 0/0
  5146 ;;		On exit  : 0/0
  5147 ;;		Unchanged: 0/0
  5148 ;; Data sizes:     COMRAM   BANK0   BANK1   BANK2   BANK3   BANK4   BANK5   BANK6   BANK7   BANK8   BANK9  BANK10  BANK1
      +1  BANK12  BANK13  BANK14  BANK15
  5149 ;;      Params:         0       0       0       0       0       0       0       0       0       0       0       0       
      +0       0       0       0       0
  5150 ;;      Locals:         0       0       0       0       0       0       0       0       0       0       0       0       
      +0       0       0       0       0
  5151 ;;      Temps:          0       0       0       0       0       0       0       0       0       0       0       0       
      +0       0       0       0       0
  5152 ;;      Totals:         0       0       0       0       0       0       0       0       0       0       0       0       
      +0       0       0       0       0
  5153 ;;Total ram usage:        0 bytes
  5154 ;; Hardware stack levels used: 1
  5155 ;; This function calls:
  5156 ;;		Nothing
  5157 ;; This function is called by:
  5158 ;;		_InterruptManager
  5159 ;; This function uses a non-reentrant model
  5160 ;;
  5161                           
  5162                           	psect	text30
  5163   00281A                     __ptext30:
  5164                           	callstack 0
  5165   00281A                     _INT0_ISR:
  5166                           	callstack 24
  5167   00281A                     
  5168                           ;MCAL_Layer/Interrupt/mcal_external_interrupt.c: 70:     (INTCONbits.INT0IF = 0);
  5169   00281A  92F2               	bcf	242,1,c	;volatile
  5170   00281C  0012               	return		;funcret
  5171   00281E                     __end_of_INT0_ISR:
  5172                           	callstack 0
  5173                           
  5174 ;; *************** function _EUSART_TX_ISR *****************
  5175 ;; Defined at:
  5176 ;;		line 238 in file "MCAL_Layer/usart/hal_usart.c"
  5177 ;; Parameters:    Size  Location     Type
  5178 ;;		None
  5179 ;; Auto vars:     Size  Location     Type
  5180 ;;		None
  5181 ;; Return value:  Size  Location     Type
  5182 ;;                  1    wreg      void 
  5183 ;; Registers used:
  5184 ;;		None
  5185 ;; Tracked objects:
  5186 ;;		On entry : 0/0
  5187 ;;		On exit  : 0/0
  5188 ;;		Unchanged: 0/0
  5189 ;; Data sizes:     COMRAM   BANK0   BANK1   BANK2   BANK3   BANK4   BANK5   BANK6   BANK7   BANK8   BANK9  BANK10  BANK1
      +1  BANK12  BANK13  BANK14  BANK15
  5190 ;;      Params:         0       0       0       0       0       0       0       0       0       0       0       0       
      +0       0       0       0       0
  5191 ;;      Locals:         0       0       0       0       0       0       0       0       0       0       0       0       
      +0       0       0       0       0
  5192 ;;      Temps:          0       0       0       0       0       0       0       0       0       0       0       0       
      +0       0       0       0       0
  5193 ;;      Totals:         0       0       0       0       0       0       0       0       0       0       0       0       
      +0       0       0       0       0
  5194 ;;Total ram usage:        0 bytes
  5195 ;; Hardware stack levels used: 1
  5196 ;; This function calls:
  5197 ;;		Nothing
  5198 ;; This function is called by:
  5199 ;;		_InterruptManager
  5200 ;; This function uses a non-reentrant model
  5201 ;;
  5202                           
  5203                           	psect	text31
  5204   00281E                     __ptext31:
  5205                           	callstack 0
  5206   00281E                     _EUSART_TX_ISR:
  5207                           	callstack 24
  5208   00281E                     
  5209                           ;MCAL_Layer/usart/hal_usart.c: 239:     (PIE1bits.TXIE = 0);
  5210   00281E  989D               	bcf	157,4,c	;volatile
  5211   002820  0012               	return		;funcret
  5212   002822                     __end_of_EUSART_TX_ISR:
  5213                           	callstack 0
  5214                           
  5215 ;; *************** function _EUSART_RX_ISR *****************
  5216 ;; Defined at:
  5217 ;;		line 244 in file "MCAL_Layer/usart/hal_usart.c"
  5218 ;; Parameters:    Size  Location     Type
  5219 ;;		None
  5220 ;; Auto vars:     Size  Location     Type
  5221 ;;		None
  5222 ;; Return value:  Size  Location     Type
  5223 ;;                  1    wreg      void 
  5224 ;; Registers used:
  5225 ;;		wreg, status,2, status,0
  5226 ;; Tracked objects:
  5227 ;;		On entry : 0/0
  5228 ;;		On exit  : 0/0
  5229 ;;		Unchanged: 0/0
  5230 ;; Data sizes:     COMRAM   BANK0   BANK1   BANK2   BANK3   BANK4   BANK5   BANK6   BANK7   BANK8   BANK9  BANK10  BANK1
      +1  BANK12  BANK13  BANK14  BANK15
  5231 ;;      Params:         0       0       0       0       0       0       0       0       0       0       0       0       
      +0       0       0       0       0
  5232 ;;      Locals:         0       0       0       0       0       0       0       0       0       0       0       0       
      +0       0       0       0       0
  5233 ;;      Temps:          0       0       0       0       0       0       0       0       0       0       0       0       
      +0       0       0       0       0
  5234 ;;      Totals:         0       0       0       0       0       0       0       0       0       0       0       0       
      +0       0       0       0       0
  5235 ;;Total ram usage:        0 bytes
  5236 ;; Hardware stack levels used: 1
  5237 ;; This function calls:
  5238 ;;		Nothing
  5239 ;; This function is called by:
  5240 ;;		_InterruptManager
  5241 ;; This function uses a non-reentrant model
  5242 ;;
  5243                           
  5244                           	psect	text32
  5245   00282E                     __ptext32:
  5246                           	callstack 0
  5247   00282E                     _EUSART_RX_ISR:
  5248                           	callstack 24
  5249   00282E  0012               	return		;funcret
  5250   002830                     __end_of_EUSART_RX_ISR:
  5251                           	callstack 0
  5252                           
  5253 ;; *************** function _EUSART_OVERRUN_ERROR_ISR *****************
  5254 ;; Defined at:
  5255 ;;		line 256 in file "MCAL_Layer/usart/hal_usart.c"
  5256 ;; Parameters:    Size  Location     Type
  5257 ;;		None
  5258 ;; Auto vars:     Size  Location     Type
  5259 ;;		None
  5260 ;; Return value:  Size  Location     Type
  5261 ;;                  1    wreg      void 
  5262 ;; Registers used:
  5263 ;;		wreg, status,2, status,0
  5264 ;; Tracked objects:
  5265 ;;		On entry : 0/0
  5266 ;;		On exit  : 0/0
  5267 ;;		Unchanged: 0/0
  5268 ;; Data sizes:     COMRAM   BANK0   BANK1   BANK2   BANK3   BANK4   BANK5   BANK6   BANK7   BANK8   BANK9  BANK10  BANK1
      +1  BANK12  BANK13  BANK14  BANK15
  5269 ;;      Params:         0       0       0       0       0       0       0       0       0       0       0       0       
      +0       0       0       0       0
  5270 ;;      Locals:         0       0       0       0       0       0       0       0       0       0       0       0       
      +0       0       0       0       0
  5271 ;;      Temps:          0       0       0       0       0       0       0       0       0       0       0       0       
      +0       0       0       0       0
  5272 ;;      Totals:         0       0       0       0       0       0       0       0       0       0       0       0       
      +0       0       0       0       0
  5273 ;;Total ram usage:        0 bytes
  5274 ;; Hardware stack levels used: 1
  5275 ;; This function calls:
  5276 ;;		Nothing
  5277 ;; This function is called by:
  5278 ;;		_InterruptManager
  5279 ;; This function uses a non-reentrant model
  5280 ;;
  5281                           
  5282                           	psect	text33
  5283   002830                     __ptext33:
  5284                           	callstack 0
  5285   002830                     _EUSART_OVERRUN_ERROR_ISR:
  5286                           	callstack 24
  5287   002830  0012               	return		;funcret
  5288   002832                     __end_of_EUSART_OVERRUN_ERROR_ISR:
  5289                           	callstack 0
  5290                           
  5291 ;; *************** function _EUSART_FRAMIN_ERROR_ISR *****************
  5292 ;; Defined at:
  5293 ;;		line 251 in file "MCAL_Layer/usart/hal_usart.c"
  5294 ;; Parameters:    Size  Location     Type
  5295 ;;		None
  5296 ;; Auto vars:     Size  Location     Type
  5297 ;;		None
  5298 ;; Return value:  Size  Location     Type
  5299 ;;                  1    wreg      void 
  5300 ;; Registers used:
  5301 ;;		wreg, status,2, status,0
  5302 ;; Tracked objects:
  5303 ;;		On entry : 0/0
  5304 ;;		On exit  : 0/0
  5305 ;;		Unchanged: 0/0
  5306 ;; Data sizes:     COMRAM   BANK0   BANK1   BANK2   BANK3   BANK4   BANK5   BANK6   BANK7   BANK8   BANK9  BANK10  BANK1
      +1  BANK12  BANK13  BANK14  BANK15
  5307 ;;      Params:         0       0       0       0       0       0       0       0       0       0       0       0       
      +0       0       0       0       0
  5308 ;;      Locals:         0       0       0       0       0       0       0       0       0       0       0       0       
      +0       0       0       0       0
  5309 ;;      Temps:          0       0       0       0       0       0       0       0       0       0       0       0       
      +0       0       0       0       0
  5310 ;;      Totals:         0       0       0       0       0       0       0       0       0       0       0       0       
      +0       0       0       0       0
  5311 ;;Total ram usage:        0 bytes
  5312 ;; Hardware stack levels used: 1
  5313 ;; This function calls:
  5314 ;;		Nothing
  5315 ;; This function is called by:
  5316 ;;		_InterruptManager
  5317 ;; This function uses a non-reentrant model
  5318 ;;
  5319                           
  5320                           	psect	text34
  5321   002832                     __ptext34:
  5322                           	callstack 0
  5323   002832                     _EUSART_FRAMIN_ERROR_ISR:
  5324                           	callstack 24
  5325   002832  0012               	return		;funcret
  5326   002834                     __end_of_EUSART_FRAMIN_ERROR_ISR:
  5327                           	callstack 0
  5328                           
  5329 ;; *************** function _CCP2_ISR *****************
  5330 ;; Defined at:
  5331 ;;		line 257 in file "MCAL_Layer/CCP/hal_ccp.c"
  5332 ;; Parameters:    Size  Location     Type
  5333 ;;		None
  5334 ;; Auto vars:     Size  Location     Type
  5335 ;;		None
  5336 ;; Return value:  Size  Location     Type
  5337 ;;                  1    wreg      void 
  5338 ;; Registers used:
  5339 ;;		None
  5340 ;; Tracked objects:
  5341 ;;		On entry : 0/0
  5342 ;;		On exit  : 0/0
  5343 ;;		Unchanged: 0/0
  5344 ;; Data sizes:     COMRAM   BANK0   BANK1   BANK2   BANK3   BANK4   BANK5   BANK6   BANK7   BANK8   BANK9  BANK10  BANK1
      +1  BANK12  BANK13  BANK14  BANK15
  5345 ;;      Params:         0       0       0       0       0       0       0       0       0       0       0       0       
      +0       0       0       0       0
  5346 ;;      Locals:         0       0       0       0       0       0       0       0       0       0       0       0       
      +0       0       0       0       0
  5347 ;;      Temps:          0       0       0       0       0       0       0       0       0       0       0       0       
      +0       0       0       0       0
  5348 ;;      Totals:         0       0       0       0       0       0       0       0       0       0       0       0       
      +0       0       0       0       0
  5349 ;;Total ram usage:        0 bytes
  5350 ;; Hardware stack levels used: 1
  5351 ;; This function calls:
  5352 ;;		Nothing
  5353 ;; This function is called by:
  5354 ;;		_InterruptManager
  5355 ;; This function uses a non-reentrant model
  5356 ;;
  5357                           
  5358                           	psect	text35
  5359   002822                     __ptext35:
  5360                           	callstack 0
  5361   002822                     _CCP2_ISR:
  5362                           	callstack 24
  5363   002822                     
  5364                           ;MCAL_Layer/CCP/hal_ccp.c: 259:     (PIR2bits.CCP2IF = 0);
  5365   002822  90A1               	bcf	161,0,c	;volatile
  5366   002824  0012               	return		;funcret
  5367   002826                     __end_of_CCP2_ISR:
  5368                           	callstack 0
  5369                           
  5370 ;; *************** function _CCP1_ISR *****************
  5371 ;; Defined at:
  5372 ;;		line 249 in file "MCAL_Layer/CCP/hal_ccp.c"
  5373 ;; Parameters:    Size  Location     Type
  5374 ;;		None
  5375 ;; Auto vars:     Size  Location     Type
  5376 ;;		None
  5377 ;; Return value:  Size  Location     Type
  5378 ;;                  1    wreg      void 
  5379 ;; Registers used:
  5380 ;;		None
  5381 ;; Tracked objects:
  5382 ;;		On entry : 0/0
  5383 ;;		On exit  : 0/0
  5384 ;;		Unchanged: 0/0
  5385 ;; Data sizes:     COMRAM   BANK0   BANK1   BANK2   BANK3   BANK4   BANK5   BANK6   BANK7   BANK8   BANK9  BANK10  BANK1
      +1  BANK12  BANK13  BANK14  BANK15
  5386 ;;      Params:         0       0       0       0       0       0       0       0       0       0       0       0       
      +0       0       0       0       0
  5387 ;;      Locals:         0       0       0       0       0       0       0       0       0       0       0       0       
      +0       0       0       0       0
  5388 ;;      Temps:          0       0       0       0       0       0       0       0       0       0       0       0       
      +0       0       0       0       0
  5389 ;;      Totals:         0       0       0       0       0       0       0       0       0       0       0       0       
      +0       0       0       0       0
  5390 ;;Total ram usage:        0 bytes
  5391 ;; Hardware stack levels used: 1
  5392 ;; This function calls:
  5393 ;;		Nothing
  5394 ;; This function is called by:
  5395 ;;		_InterruptManager
  5396 ;; This function uses a non-reentrant model
  5397 ;;
  5398                           
  5399                           	psect	text36
  5400   002826                     __ptext36:
  5401                           	callstack 0
  5402   002826                     _CCP1_ISR:
  5403                           	callstack 24
  5404   002826                     
  5405                           ;MCAL_Layer/CCP/hal_ccp.c: 251:     (PIR1bits.CCP1IF = 0);
  5406   002826  949E               	bcf	158,2,c	;volatile
  5407   002828  0012               	return		;funcret
  5408   00282A                     __end_of_CCP1_ISR:
  5409                           	callstack 0
  5410                           
  5411 ;; *************** function _ADC_ISR *****************
  5412 ;; Defined at:
  5413 ;;		line 206 in file "MCAL_Layer/ADC/hal_adc.c"
  5414 ;; Parameters:    Size  Location     Type
  5415 ;;		None
  5416 ;; Auto vars:     Size  Location     Type
  5417 ;;		None
  5418 ;; Return value:  Size  Location     Type
  5419 ;;                  1    wreg      void 
  5420 ;; Registers used:
  5421 ;;		None
  5422 ;; Tracked objects:
  5423 ;;		On entry : 0/0
  5424 ;;		On exit  : 0/0
  5425 ;;		Unchanged: 0/0
  5426 ;; Data sizes:     COMRAM   BANK0   BANK1   BANK2   BANK3   BANK4   BANK5   BANK6   BANK7   BANK8   BANK9  BANK10  BANK1
      +1  BANK12  BANK13  BANK14  BANK15
  5427 ;;      Params:         0       0       0       0       0       0       0       0       0       0       0       0       
      +0       0       0       0       0
  5428 ;;      Locals:         0       0       0       0       0       0       0       0       0       0       0       0       
      +0       0       0       0       0
  5429 ;;      Temps:          0       0       0       0       0       0       0       0       0       0       0       0       
      +0       0       0       0       0
  5430 ;;      Totals:         0       0       0       0       0       0       0       0       0       0       0       0       
      +0       0       0       0       0
  5431 ;;Total ram usage:        0 bytes
  5432 ;; Hardware stack levels used: 1
  5433 ;; This function calls:
  5434 ;;		Nothing
  5435 ;; This function is called by:
  5436 ;;		_InterruptManager
  5437 ;; This function uses a non-reentrant model
  5438 ;;
  5439                           
  5440                           	psect	text37
  5441   00282A                     __ptext37:
  5442                           	callstack 0
  5443   00282A                     _ADC_ISR:
  5444                           	callstack 24
  5445   00282A                     
  5446                           ;MCAL_Layer/ADC/hal_adc.c: 208:     (PIR1bits.ADIF = 0);
  5447   00282A  9C9E               	bcf	158,6,c	;volatile
  5448   00282C  0012               	return		;funcret
  5449   00282E                     __end_of_ADC_ISR:
  5450                           	callstack 0
  5451                           
  5452                           	psect	text38
  5453   000000                     __ptext38:
  5454                           	callstack 0
  5455   000000                     
  5456                           	psect	rparam
  5457   000000                     
  5458                           	psect	temp
  5459   000077                     btemp:
  5460                           	callstack 0
  5461   000077                     	ds	1
  5462   000000                     int$flags	set	btemp
  5463   000000                     wtemp8	set	btemp+1
  5464   000000                     ttemp5	set	btemp+1
  5465   000000                     ttemp6	set	btemp+4
  5466   000000                     ttemp7	set	btemp+8
  5467                           
  5468                           	psect	idloc
  5469                           
  5470                           ;Config register IDLOC0 @ 0x200000
  5471                           ;	unspecified, using default values
  5472   200000                     	org	2097152
  5473   200000  FF                 	db	255
  5474                           
  5475                           ;Config register IDLOC1 @ 0x200001
  5476                           ;	unspecified, using default values
  5477   200001                     	org	2097153
  5478   200001  FF                 	db	255
  5479                           
  5480                           ;Config register IDLOC2 @ 0x200002
  5481                           ;	unspecified, using default values
  5482   200002                     	org	2097154
  5483   200002  FF                 	db	255
  5484                           
  5485                           ;Config register IDLOC3 @ 0x200003
  5486                           ;	unspecified, using default values
  5487   200003                     	org	2097155
  5488   200003  FF                 	db	255
  5489                           
  5490                           ;Config register IDLOC4 @ 0x200004
  5491                           ;	unspecified, using default values
  5492   200004                     	org	2097156
  5493   200004  FF                 	db	255
  5494                           
  5495                           ;Config register IDLOC5 @ 0x200005
  5496                           ;	unspecified, using default values
  5497   200005                     	org	2097157
  5498   200005  FF                 	db	255
  5499                           
  5500                           ;Config register IDLOC6 @ 0x200006
  5501                           ;	unspecified, using default values
  5502   200006                     	org	2097158
  5503   200006  FF                 	db	255
  5504                           
  5505                           ;Config register IDLOC7 @ 0x200007
  5506                           ;	unspecified, using default values
  5507   200007                     	org	2097159
  5508   200007  FF                 	db	255
  5509                           
  5510                           	psect	config
  5511                           
  5512                           ; Padding undefined space
  5513   300000                     	org	3145728
  5514   300000  FF                 	db	255
  5515                           
  5516                           ;Config register CONFIG1H @ 0x300001
  5517                           ;	Oscillator Selection bits
  5518                           ;	OSC = HS, HS oscillator
  5519                           ;	Fail-Safe Clock Monitor Enable bit
  5520                           ;	FCMEN = OFF, Fail-Safe Clock Monitor disabled
  5521                           ;	Internal/External Oscillator Switchover bit
  5522                           ;	IESO = OFF, Oscillator Switchover mode disabled
  5523   300001                     	org	3145729
  5524   300001  02                 	db	2
  5525                           
  5526                           ;Config register CONFIG2L @ 0x300002
  5527                           ;	Power-up Timer Enable bit
  5528                           ;	PWRT = OFF, PWRT disabled
  5529                           ;	Brown-out Reset Enable bits
  5530                           ;	BOREN = OFF, Brown-out Reset disabled in hardware and software
  5531                           ;	Brown Out Reset Voltage bits
  5532                           ;	BORV = 1, 
  5533   300002                     	org	3145730
  5534   300002  09                 	db	9
  5535                           
  5536                           ;Config register CONFIG2H @ 0x300003
  5537                           ;	Watchdog Timer Enable bit
  5538                           ;	WDT = OFF, WDT disabled (control is placed on the SWDTEN bit)
  5539                           ;	Watchdog Timer Postscale Select bits
  5540                           ;	WDTPS = 32768, 1:32768
  5541   300003                     	org	3145731
  5542   300003  1E                 	db	30
  5543                           
  5544                           ; Padding undefined space
  5545   300004                     	org	3145732
  5546   300004  FF                 	db	255
  5547                           
  5548                           ;Config register CONFIG3H @ 0x300005
  5549                           ;	CCP2 MUX bit
  5550                           ;	CCP2MX = PORTC, CCP2 input/output is multiplexed with RC1
  5551                           ;	PORTB A/D Enable bit
  5552                           ;	PBADEN = OFF, PORTB<4:0> pins are configured as digital I/O on Reset
  5553                           ;	Low-Power Timer1 Oscillator Enable bit
  5554                           ;	LPT1OSC = OFF, Timer1 configured for higher power operation
  5555                           ;	MCLR Pin Enable bit
  5556                           ;	MCLRE = ON, MCLR pin enabled; RE3 input pin disabled
  5557   300005                     	org	3145733
  5558   300005  81                 	db	129
  5559                           
  5560                           ;Config register CONFIG4L @ 0x300006
  5561                           ;	Stack Full/Underflow Reset Enable bit
  5562                           ;	STVREN = ON, Stack full/underflow will cause Reset
  5563                           ;	Single-Supply ICSP Enable bit
  5564                           ;	LVP = OFF, Single-Supply ICSP disabled
  5565                           ;	Extended Instruction Set Enable bit
  5566                           ;	XINST = OFF, Instruction set extension and Indexed Addressing mode disabled (Legacy mo
      +                          de)
  5567                           ;	Background Debugger Enable bit
  5568                           ;	DEBUG = 0x1, unprogrammed default
  5569   300006                     	org	3145734
  5570   300006  81                 	db	129
  5571                           
  5572                           ; Padding undefined space
  5573   300007                     	org	3145735
  5574   300007  FF                 	db	255
  5575                           
  5576                           ;Config register CONFIG5L @ 0x300008
  5577                           ;	Code Protection bit
  5578                           ;	CP0 = OFF, Block 0 (000800-003FFFh) not code-protected
  5579                           ;	Code Protection bit
  5580                           ;	CP1 = OFF, Block 1 (004000-007FFFh) not code-protected
  5581                           ;	Code Protection bit
  5582                           ;	CP2 = OFF, Block 2 (008000-00BFFFh) not code-protected
  5583                           ;	Code Protection bit
  5584                           ;	CP3 = OFF, Block 3 (00C000-00FFFFh) not code-protected
  5585   300008                     	org	3145736
  5586   300008  0F                 	db	15
  5587                           
  5588                           ;Config register CONFIG5H @ 0x300009
  5589                           ;	Boot Block Code Protection bit
  5590                           ;	CPB = OFF, Boot block (000000-0007FFh) not code-protected
  5591                           ;	Data EEPROM Code Protection bit
  5592                           ;	CPD = OFF, Data EEPROM not code-protected
  5593   300009                     	org	3145737
  5594   300009  C0                 	db	192
  5595                           
  5596                           ;Config register CONFIG6L @ 0x30000A
  5597                           ;	Write Protection bit
  5598                           ;	WRT0 = OFF, Block 0 (000800-003FFFh) not write-protected
  5599                           ;	Write Protection bit
  5600                           ;	WRT1 = OFF, Block 1 (004000-007FFFh) not write-protected
  5601                           ;	Write Protection bit
  5602                           ;	WRT2 = OFF, Block 2 (008000-00BFFFh) not write-protected
  5603                           ;	Write Protection bit
  5604                           ;	WRT3 = OFF, Block 3 (00C000-00FFFFh) not write-protected
  5605   30000A                     	org	3145738
  5606   30000A  0F                 	db	15
  5607                           
  5608                           ;Config register CONFIG6H @ 0x30000B
  5609                           ;	Configuration Register Write Protection bit
  5610                           ;	WRTC = OFF, Configuration registers (300000-3000FFh) not write-protected
  5611                           ;	Boot Block Write Protection bit
  5612                           ;	WRTB = OFF, Boot Block (000000-0007FFh) not write-protected
  5613                           ;	Data EEPROM Write Protection bit
  5614                           ;	WRTD = OFF, Data EEPROM not write-protected
  5615   30000B                     	org	3145739
  5616   30000B  E0                 	db	224
  5617                           
  5618                           ;Config register CONFIG7L @ 0x30000C
  5619                           ;	Table Read Protection bit
  5620                           ;	EBTR0 = OFF, Block 0 (000800-003FFFh) not protected from table reads executed in other
      +                           blocks
  5621                           ;	Table Read Protection bit
  5622                           ;	EBTR1 = OFF, Block 1 (004000-007FFFh) not protected from table reads executed in other
      +                           blocks
  5623                           ;	Table Read Protection bit
  5624                           ;	EBTR2 = OFF, Block 2 (008000-00BFFFh) not protected from table reads executed in other
      +                           blocks
  5625                           ;	Table Read Protection bit
  5626                           ;	EBTR3 = OFF, Block 3 (00C000-00FFFFh) not protected from table reads executed in other
      +                           blocks
  5627   30000C                     	org	3145740
  5628   30000C  0F                 	db	15
  5629                           
  5630                           ;Config register CONFIG7H @ 0x30000D
  5631                           ;	Boot Block Table Read Protection bit
  5632                           ;	EBTRB = OFF, Boot Block (000000-0007FFh) not protected from table reads executed in ot
      +                          her blocks
  5633   30000D                     	org	3145741
  5634   30000D  40                 	db	64
  5635                           tosu	equ	0xFFF
  5636                           tosh	equ	0xFFE
  5637                           tosl	equ	0xFFD
  5638                           stkptr	equ	0xFFC
  5639                           pclatu	equ	0xFFB
  5640                           pclath	equ	0xFFA
  5641                           pcl	equ	0xFF9
  5642                           tblptru	equ	0xFF8
  5643                           tblptrh	equ	0xFF7
  5644                           tblptrl	equ	0xFF6
  5645                           tablat	equ	0xFF5
  5646                           prodh	equ	0xFF4
  5647                           prodl	equ	0xFF3
  5648                           indf0	equ	0xFEF
  5649                           postinc0	equ	0xFEE
  5650                           postdec0	equ	0xFED
  5651                           preinc0	equ	0xFEC
  5652                           plusw0	equ	0xFEB
  5653                           fsr0h	equ	0xFEA
  5654                           fsr0l	equ	0xFE9
  5655                           wreg	equ	0xFE8
  5656                           indf1	equ	0xFE7
  5657                           postinc1	equ	0xFE6
  5658                           postdec1	equ	0xFE5
  5659                           preinc1	equ	0xFE4
  5660                           plusw1	equ	0xFE3
  5661                           fsr1h	equ	0xFE2
  5662                           fsr1l	equ	0xFE1
  5663                           bsr	equ	0xFE0
  5664                           indf2	equ	0xFDF
  5665                           postinc2	equ	0xFDE
  5666                           postdec2	equ	0xFDD
  5667                           preinc2	equ	0xFDC
  5668                           plusw2	equ	0xFDB
  5669                           fsr2h	equ	0xFDA
  5670                           fsr2l	equ	0xFD9
  5671                           status	equ	0xFD8

Data Sizes:
    Strings     3
    Constant    16
    Data        45
    BSS         86
    Persistent  0
    Stack       0

Auto Spaces:
    Space          Size  Autos    Used
    COMRAM          126     71     118
    BANK0           128      7      91
    BANK1           256      0       0
    BANK2           256      0       0
    BANK3           256      0       0
    BANK4           256      0       0
    BANK5           256      0       0
    BANK6           256      0       0
    BANK7           256      0       0
    BANK8           256      0       0
    BANK9           256      0       0
    BANK10          256      0       0
    BANK11          256      0       0
    BANK12          256      0       0
    BANK13          256      0       0
    BANK14          256      0       0
    BANK15          128      0       0

Pointer List with Targets:

    vfprintf$2	PTR PTR void  size(2) Largest target is 2
		 -> sprintf@ap(COMRAM[2]), 

    vfprintf$1	PTR const unsigned char  size(2) Largest target is 3
		 -> STR_3(CODE[3]), STR_2(CODE[3]), STR_1(CODE[3]), 

    vfprintf$0	PTR struct _IO_FILE size(2) Largest target is 11
		 -> sprintf@f(COMRAM[11]), 

    MSSP_I2C_SLAVE_Read_Write@i2c_obj	PTR const struct . size(2) Largest target is 13
		 -> i2c_obj(BANK0[13]), 

    SPI_ImterruptHandler	PTR FTN()void  size(2) Largest target is 1
		 -> Absolute function(), 

    S4842$source	PTR const unsigned char  size(2) Largest target is 0

    f...source	PTR const unsigned char  size(2) Largest target is 0

    S4842$buffer	PTR unsigned char  size(2) Largest target is 0

    f...buffer	PTR unsigned char  size(2) Largest target is 0

    i2c_obj.I2C_Report_Receive_Overflow	PTR FTN()void  size(2) Largest target is 0
		 -> NULL(NULL[0]), 

    i2c_obj.I2C_Report_Write_Collision	PTR FTN()void  size(2) Largest target is 0
		 -> NULL(NULL[0]), 

    i2c_obj.I2C_DefaultInterruptHandler	PTR FTN()void  size(2) Largest target is 1
		 -> MSSP_I2C_DefaultInterruptHandler(), 

    EUSART_OverrunErrorHandler	PTR FTN()void  size(2) Largest target is 1
		 -> Absolute function(), 

    EUSART_FramingErrorHandler	PTR FTN()void  size(2) Largest target is 1
		 -> Absolute function(), 

    EUSART_RxInterruptHandler	PTR FTN()void  size(2) Largest target is 1
		 -> Absolute function(), 

    EUSART_ASYNC_RX_Init@_eusart.EUSART_OverrunErrorHandler	PTR FTN()void  size(2) Largest target is 0

    EUSART_ASYNC_RX_Init@_eusart.EUSART_FramingErrorHandler	PTR FTN()void  size(2) Largest target is 0

    EUSART_ASYNC_RX_Init@_eusart.EUSART_RXDefaultInterruptHandler	PTR FTN()void  size(2) Largest target is 0

    EUSART_ASYNC_RX_Init@_eusart.EUSART_TXDefaultInterruptHandler	PTR FTN()void  size(2) Largest target is 0

    EUSART_TxInterruptHandler	PTR FTN()void  size(2) Largest target is 1
		 -> Absolute function(), 

    EUSART_ASYNC_TX_Init@_eusart.EUSART_OverrunErrorHandler	PTR FTN()void  size(2) Largest target is 0

    EUSART_ASYNC_TX_Init@_eusart.EUSART_FramingErrorHandler	PTR FTN()void  size(2) Largest target is 0

    EUSART_ASYNC_TX_Init@_eusart.EUSART_RXDefaultInterruptHandler	PTR FTN()void  size(2) Largest target is 0

    EUSART_ASYNC_TX_Init@_eusart.EUSART_TXDefaultInterruptHandler	PTR FTN()void  size(2) Largest target is 0

    EUSART_BAUD_RATE_Calculation@_eusart.EUSART_OverrunErrorHandler	PTR FTN()void  size(2) Largest target is 0

    EUSART_BAUD_RATE_Calculation@_eusart.EUSART_FramingErrorHandler	PTR FTN()void  size(2) Largest target is 0

    EUSART_BAUD_RATE_Calculation@_eusart.EUSART_RXDefaultInterruptHandler	PTR FTN()void  size(2) Largest target is 0

    EUSART_BAUD_RATE_Calculation@_eusart.EUSART_TXDefaultInterruptHandler	PTR FTN()void  size(2) Largest target is 0

    S3901$EUSART_OverrunErrorHandler	PTR FTN()void  size(2) Largest target is 0

    EUSART_ASYNC_Init@_eusart.EUSART_OverrunErrorHandler	PTR FTN()void  size(2) Largest target is 0

    S3901$EUSART_FramingErrorHandler	PTR FTN()void  size(2) Largest target is 0

    EUSART_ASYNC_Init@_eusart.EUSART_FramingErrorHandler	PTR FTN()void  size(2) Largest target is 0

    S3901$EUSART_RXDefaultInterruptHandler	PTR FTN()void  size(2) Largest target is 0

    EUSART_ASYNC_Init@_eusart.EUSART_RXDefaultInterruptHandler	PTR FTN()void  size(2) Largest target is 0

    S3901$EUSART_TXDefaultInterruptHandler	PTR FTN()void  size(2) Largest target is 0

    EUSART_ASYNC_Init@_eusart.EUSART_TXDefaultInterruptHandler	PTR FTN()void  size(2) Largest target is 0

    Timer3_Mode_Select@_timer.Timer3_InterruptHandler	PTR FTN()void  size(2) Largest target is 0

    TIMER3_InterruptHandler	PTR FTN()void  size(2) Largest target is 1
		 -> Absolute function(), 

    S3707$Timer3_InterruptHandler	PTR FTN()void  size(2) Largest target is 0

    Timer3_Init@_timer.Timer3_InterruptHandler	PTR FTN()void  size(2) Largest target is 0

    TIMER2_InterruptHandler	PTR FTN()void  size(2) Largest target is 1
		 -> Absolute function(), 

    S3576$Timer2_InterruptHandler	PTR FTN()void  size(2) Largest target is 0

    Timer2_Init@_timer.Timer2_InterruptHandler	PTR FTN()void  size(2) Largest target is 0

    Timer1_Mode_Select@_timer.Timer1_InterruptHandler	PTR FTN()void  size(2) Largest target is 0

    TIMER1_InterruptHandler	PTR FTN()void  size(2) Largest target is 1
		 -> Absolute function(), 

    S3387$Timer1_InterruptHandler	PTR FTN()void  size(2) Largest target is 0

    Timer1_Init@_timer.Timer1_InterruptHandler	PTR FTN()void  size(2) Largest target is 0

    Timer0_Register_Size_Config@_timer.TIMER0_Interrupt_Handler	PTR FTN()void  size(2) Largest target is 0

    Timer0_Mode_Select@_timer.TIMER0_Interrupt_Handler	PTR FTN()void  size(2) Largest target is 0

    Timer0_Prescaler_Config@_timer.TIMER0_Interrupt_Handler	PTR FTN()void  size(2) Largest target is 0

    TIMER0_InterruptHandler	PTR FTN()void  size(2) Largest target is 1
		 -> Absolute function(), 

    S3222$TIMER0_Interrupt_Handler	PTR FTN()void  size(2) Largest target is 0

    Timer0_Init@_timer.TIMER0_Interrupt_Handler	PTR FTN()void  size(2) Largest target is 0

    INTERRUPT_RBx_SetInterruptHandler@rb_obj.EXT_InterruptHandlerLow	PTR FTN()void  size(2) Largest target is 0

    INTERRUPT_RBx_SetInterruptHandler@rb_obj.EXT_InterruptHandlerHigh	PTR FTN()void  size(2) Largest target is 0

    S2382$EXT_InterruptHandlerLow	PTR FTN()void  size(2) Largest target is 0

    NTERUPT_RBx_Pin_Init@rb_obj.EXT_InterruptHandlerLow	PTR FTN()void  size(2) Largest target is 0

    S2382$EXT_InterruptHandlerHigh	PTR FTN()void  size(2) Largest target is 0

    NTERUPT_RBx_Pin_Init@rb_obj.EXT_InterruptHandlerHigh	PTR FTN()void  size(2) Largest target is 0

    INTERRUPT_INTx_SetInterruptHandler@int_obj.EXT_InterruptHandler	PTR FTN()void  size(2) Largest target is 0

    NTERUPT_INTx_Clear_Flag@int_obj.EXT_InterruptHandler	PTR FTN()void  size(2) Largest target is 0

    NTERUPT_INTx_Pin_Init@int_obj.EXT_InterruptHandler	PTR FTN()void  size(2) Largest target is 0

    NTERUPT_INTx_Edge_Init@int_obj.EXT_InterruptHandler	PTR FTN()void  size(2) Largest target is 0

    NTERUPT_INTx_Disable@int_obj.EXT_InterruptHandler	PTR FTN()void  size(2) Largest target is 0

    S2274$EXT_InterruptHandler	PTR FTN()void  size(2) Largest target is 0

    NTERUPT_INTx_Enable@int_obj.EXT_InterruptHandler	PTR FTN()void  size(2) Largest target is 0

    RB7_InterruptHandlerHigh	PTR FTN()void  size(2) Largest target is 1
		 -> Absolute function(), 

    RB7_InterruptHandlerLow	PTR FTN()void  size(2) Largest target is 1
		 -> Absolute function(), 

    RB6_InterruptHandlerHigh	PTR FTN()void  size(2) Largest target is 1
		 -> Absolute function(), 

    RB6_InterruptHandlerLow	PTR FTN()void  size(2) Largest target is 1
		 -> Absolute function(), 

    RB5_InterruptHandlerHigh	PTR FTN()void  size(2) Largest target is 1
		 -> Absolute function(), 

    RB5_InterruptHandlerLow	PTR FTN()void  size(2) Largest target is 1
		 -> Absolute function(), 

    RB4_InterruptHandlerHigh	PTR FTN()void  size(2) Largest target is 1
		 -> Absolute function(), 

    RB4_InterruptHandlerLow	PTR FTN()void  size(2) Largest target is 1
		 -> Absolute function(), 

    INT2_InterruptHandler	PTR FTN()void  size(2) Largest target is 1
		 -> Absolute function(), 

    INT1_InterruptHandler	PTR FTN()void  size(2) Largest target is 1
		 -> Absolute function(), 

    INT0_InterruptHandler	PTR FTN()void  size(2) Largest target is 1
		 -> Absolute function(), 

    I2C_Report_Receive_OverFlowInterruptHandler	PTR FTN()void  size(2) Largest target is 1
		 -> Absolute function(), NULL(NULL[0]), 

    MSSP_I2C_Interrupt_Configuration@i2c_obj.I2C_Report_Receive_Overflow	PTR FTN()void  size(2) Largest target is 0
		 -> NULL(NULL[0]), 

    MSSP_I2C_Interrupt_Configuration@i2c_obj.I2C_Report_Write_Collision	PTR FTN()void  size(2) Largest target is 0
		 -> NULL(NULL[0]), 

    MSSP_I2C_Interrupt_Configuration@i2c_obj.I2C_DefaultInterruptHandler	PTR FTN()void  size(2) Largest target is 1
		 -> MSSP_I2C_DefaultInterruptHandler(), 

    MSSP_I2C_Interrupt_Configuration@i2c_obj	PTR const struct . size(2) Largest target is 13
		 -> i2c_obj(BANK0[13]), 

    I2C_BUS_COLInterruptHandler	PTR FTN()void  size(2) Largest target is 1
		 -> Absolute function(), NULL(NULL[0]), 

    I2CInterruptHandler	PTR FTN()void  size(2) Largest target is 1
		 -> MSSP_I2C_DefaultInterruptHandler(), Absolute function(), 

    MSSP_I2C_SLAVE_Read_Write@i2c_data	PTR unsigned char  size(2) Largest target is 1
		 -> i2c_slave_2rec(COMRAM[1]), 

    S1812$I2C_Report_Receive_Overflow	PTR FTN()void  size(2) Largest target is 0
		 -> NULL(NULL[0]), 

    MSSP_I2C_Init@i2c_obj.I2C_Report_Receive_Overflow	PTR FTN()void  size(2) Largest target is 0
		 -> NULL(NULL[0]), 

    S1812$I2C_Report_Write_Collision	PTR FTN()void  size(2) Largest target is 0
		 -> NULL(NULL[0]), 

    MSSP_I2C_Init@i2c_obj.I2C_Report_Write_Collision	PTR FTN()void  size(2) Largest target is 0
		 -> NULL(NULL[0]), 

    S1812$I2C_DefaultInterruptHandler	PTR FTN()void  size(2) Largest target is 1
		 -> MSSP_I2C_DefaultInterruptHandler(), 

    MSSP_I2C_Init@i2c_obj.I2C_DefaultInterruptHandler	PTR FTN()void  size(2) Largest target is 1
		 -> MSSP_I2C_DefaultInterruptHandler(), 

    MSSP_I2C_Init@i2c_obj	PTR const struct . size(2) Largest target is 13
		 -> i2c_obj(BANK0[13]), 

    gpio_pin_initialize@_pin_config	PTR const struct . size(2) Largest target is 1
		 -> relay_initialize@pin_obj(COMRAM[1]), led_initialize@pin_obj(COMRAM[1]), 

    gpio_pin_write_logic@_pin_config	PTR const struct . size(2) Largest target is 1
		 -> relay_turn_off@pin_obj(COMRAM[1]), relay_turn_on@pin_obj(COMRAM[1]), relay_initialize@pin_obj(COMRAM[1]), led_turn_off@pin_obj(COMRAM[1]), 
		 -> led_turn_on@pin_obj(COMRAM[1]), led_initialize@pin_obj(COMRAM[1]), 

    gpio_pin_direction_initialize@_pin_config	PTR const struct . size(2) Largest target is 1
		 -> relay_initialize@pin_obj(COMRAM[1]), led_initialize@pin_obj(COMRAM[1]), 

    port_registers	PTR volatile unsigned char [5] size(2) Largest target is 3967
		 -> RAM(DATA[3967]), 

    lat_registers	PTR volatile unsigned char [5] size(2) Largest target is 3967
		 -> RAM(DATA[3967]), 

    tris_registers	PTR volatile unsigned char [5] size(2) Largest target is 3967
		 -> RAM(DATA[3967]), 

    CCP_Mode_Timer_Select@_ccp_obj.CCP2_InterruptHandler	PTR FTN()void  size(2) Largest target is 0

    CCP_Mode_Timer_Select@_ccp_obj.CCP1_InterruptHandler	PTR FTN()void  size(2) Largest target is 0

    CCP_Interrupt_Config@_ccp_obj.CCP2_InterruptHandler	PTR FTN()void  size(2) Largest target is 0

    CCP_Interrupt_Config@_ccp_obj.CCP1_InterruptHandler	PTR FTN()void  size(2) Largest target is 0

    CPP_Compare_Mode_Config@_ccp_obj.CCP2_InterruptHandler	PTR FTN()void  size(2) Largest target is 0

    CPP_Compare_Mode_Config@_ccp_obj.CCP1_InterruptHandler	PTR FTN()void  size(2) Largest target is 0

    CPP_CAPTURE_MOde_Config@_ccp_obj.CCP2_InterruptHandler	PTR FTN()void  size(2) Largest target is 0

    CPP_CAPTURE_MOde_Config@_ccp_obj.CCP1_InterruptHandler	PTR FTN()void  size(2) Largest target is 0

    CCP2_InterruptHandler	PTR FTN()void  size(2) Largest target is 1
		 -> Absolute function(), 

    CCP1_InterruptHandler	PTR FTN()void  size(2) Largest target is 1
		 -> Absolute function(), 

    CCP_CompareModeSetValue@_ccp_obj.CCP2_InterruptHandler	PTR FTN()void  size(2) Largest target is 0

    CCP_CompareModeSetValue@_ccp_obj.CCP1_InterruptHandler	PTR FTN()void  size(2) Largest target is 0

    CCP_IsCompareComplete@_ccp_obj.CCP2_InterruptHandler	PTR FTN()void  size(2) Largest target is 0

    CCP_IsCompareComplete@_ccp_obj.CCP1_InterruptHandler	PTR FTN()void  size(2) Largest target is 0

    CCP_DeInit@_ccp_obj.CCP2_InterruptHandler	PTR FTN()void  size(2) Largest target is 0

    CCP_DeInit@_ccp_obj.CCP1_InterruptHandler	PTR FTN()void  size(2) Largest target is 0

    S1150$CCP2_InterruptHandler	PTR FTN()void  size(2) Largest target is 0

    CCP_Init@_ccp_obj.CCP2_InterruptHandler	PTR FTN()void  size(2) Largest target is 0

    S1150$CCP1_InterruptHandler	PTR FTN()void  size(2) Largest target is 0

    CCP_Init@_ccp_obj.CCP1_InterruptHandler	PTR FTN()void  size(2) Largest target is 0

    configure_voltage_refrence@_adc.ADC_InterruptHandler	PTR FTN()void  size(2) Largest target is 0

    select_result_format@_adc.ADC_InterruptHandler	PTR FTN()void  size(2) Largest target is 0

    ADC_GetConversionResult@_adc.ADC_InterruptHandler	PTR FTN()void  size(2) Largest target is 0

    ADC_InterruptHandler	PTR FTN()void  size(2) Largest target is 1
		 -> Absolute function(), 

    S734$ADC_InterruptHandler	PTR FTN()void  size(2) Largest target is 0

    ADC_Init@_adc.ADC_InterruptHandler	PTR FTN()void  size(2) Largest target is 0

    led_turn_off@led	PTR const struct . size(2) Largest target is 1
		 -> led_D_0(COMRAM[1]), 

    led_turn_on@led	PTR const struct . size(2) Largest target is 1
		 -> led_D_0(COMRAM[1]), 

    led_initialize@led	PTR const struct . size(2) Largest target is 1
		 -> led_D_0(COMRAM[1]), 

    sp__memset	PTR void  size(2) Largest target is 0


Critical Paths under _main in COMRAM

    _led_turn_on->_gpio_pin_write_logic
    _led_turn_off->_gpio_pin_write_logic
    _ecu_layer_initialize->_led_initialize
    _led_initialize->_gpio_pin_initialize
    _gpio_pin_initialize->_gpio_pin_write_logic
    _MSSP_I2C_Init->___fltol
    ___fltol->___fladd
    ___fldiv->___xxtofl
    ___fladd->___fldiv

Critical Paths under _InterruptManager in COMRAM

    _MSSP_I2C_DefaultInterruptHandler->_MSSP_I2C_SLAVE_Read_Write

Critical Paths under _main in BANK0

    _main->_MSSP_I2C_Init
    _MSSP_I2C_Init->___fltol

Critical Paths under _InterruptManager in BANK0

    None.

Critical Paths under _main in BANK1

    None.

Critical Paths under _InterruptManager in BANK1

    None.

Critical Paths under _main in BANK2

    None.

Critical Paths under _InterruptManager in BANK2

    None.

Critical Paths under _main in BANK3

    None.

Critical Paths under _InterruptManager in BANK3

    None.

Critical Paths under _main in BANK4

    None.

Critical Paths under _InterruptManager in BANK4

    None.

Critical Paths under _main in BANK5

    None.

Critical Paths under _InterruptManager in BANK5

    None.

Critical Paths under _main in BANK6

    None.

Critical Paths under _InterruptManager in BANK6

    None.

Critical Paths under _main in BANK7

    None.

Critical Paths under _InterruptManager in BANK7

    None.

Critical Paths under _main in BANK8

    None.

Critical Paths under _InterruptManager in BANK8

    None.

Critical Paths under _main in BANK9

    None.

Critical Paths under _InterruptManager in BANK9

    None.

Critical Paths under _main in BANK10

    None.

Critical Paths under _InterruptManager in BANK10

    None.

Critical Paths under _main in BANK11

    None.

Critical Paths under _InterruptManager in BANK11

    None.

Critical Paths under _main in BANK12

    None.

Critical Paths under _InterruptManager in BANK12

    None.

Critical Paths under _main in BANK13

    None.

Critical Paths under _InterruptManager in BANK13

    None.

Critical Paths under _main in BANK14

    None.

Critical Paths under _InterruptManager in BANK14

    None.

Critical Paths under _main in BANK15

    None.

Critical Paths under _InterruptManager in BANK15

    None.

Call Graph Tables:

 ---------------------------------------------------------------------------------
 (Depth) Function   	        Calls       Base Space   Used Autos Params    Refs
 ---------------------------------------------------------------------------------
 (0) _main                                                 1     1      0   26737
                      _MSSP_I2C_Init
              _application_intialize
                       _led_turn_off
                        _led_turn_on
 ---------------------------------------------------------------------------------
 (1) _led_turn_on                                          5     3      2    4639
                                             18 COMRAM     4     2      2
               _gpio_pin_write_logic
 ---------------------------------------------------------------------------------
 (1) _led_turn_off                                         5     3      2    4639
                                             18 COMRAM     4     2      2
               _gpio_pin_write_logic
 ---------------------------------------------------------------------------------
 (1) _application_intialize                                1     1      0    6559
               _ecu_layer_initialize
 ---------------------------------------------------------------------------------
 (2) _ecu_layer_initialize                                 0     0      0    6558
                     _led_initialize
 ---------------------------------------------------------------------------------
 (3) _led_initialize                                       5     3      2    6558
                                             22 COMRAM     4     2      2
                _gpio_pin_initialize
 ---------------------------------------------------------------------------------
 (4) _gpio_pin_initialize                                  4     2      2    6346
                                             18 COMRAM     4     2      2
      _gpio_pin_direction_initialize
               _gpio_pin_write_logic
 ---------------------------------------------------------------------------------
 (2) _gpio_pin_write_logic                                10     7      3    4435
                                              8 COMRAM    10     7      3
 ---------------------------------------------------------------------------------
 (5) _gpio_pin_direction_initialize                        9     7      2     559
                                              8 COMRAM     9     7      2
 ---------------------------------------------------------------------------------
 (1) _MSSP_I2C_Init                                        5     3      2   10894
                                              2 BANK0      5     3      2
   _MSSP_I2C_Interrupt_Configuration
                            ___fladd
                            ___fldiv
                            ___fltol
                           ___xxtofl
 ---------------------------------------------------------------------------------
 (2) ___xxtofl                                            14    10      4    1076
                                              8 COMRAM    14    10      4
 ---------------------------------------------------------------------------------
 (2) ___fltol                                             10     6      4     577
                                             63 COMRAM     8     4      4
                                              0 BANK0      2     2      0
                            ___fladd (ARG)
                            ___fldiv (ARG)
                           ___xxtofl (ARG)
 ---------------------------------------------------------------------------------
 (2) ___fldiv                                             25    17      8    4103
                                             22 COMRAM    25    17      8
                           ___xxtofl (ARG)
 ---------------------------------------------------------------------------------
 (2) ___fladd                                             16     8      8    4422
                                             47 COMRAM    16     8      8
                            ___fldiv (ARG)
                           ___xxtofl (ARG)
 ---------------------------------------------------------------------------------
 (2) _MSSP_I2C_Interrupt_Configuration                     2     0      2     183
                                              8 COMRAM     2     0      2
 ---------------------------------------------------------------------------------
 Estimated maximum stack depth 5
 ---------------------------------------------------------------------------------
 (Depth) Function   	        Calls       Base Space   Used Autos Params    Refs
 ---------------------------------------------------------------------------------
 (6) _InterruptManager                                     4     4      0     256
                                              4 COMRAM     4     4      0
                            _ADC_ISR
                           _CCP1_ISR
                           _CCP2_ISR
            _EUSART_FRAMIN_ERROR_ISR
           _EUSART_OVERRUN_ERROR_ISR
                      _EUSART_RX_ISR
                      _EUSART_TX_ISR
                           _INT0_ISR
                           _INT1_ISR
                           _INT2_ISR
               _MSSP_I2C_BUS_COL_ISR
                       _MSSP_I2C_ISR
                            _RB4_ISR
                            _RB5_ISR
                            _RB6_ISR
                            _RB7_ISR
                         _TIMER0_ISR
                         _TIMER1_ISR
                         _TIMER2_ISR
                         _TIMER3_ISR
 ---------------------------------------------------------------------------------
 (7) _TIMER3_ISR                                           0     0      0       0
 ---------------------------------------------------------------------------------
 (7) _TIMER2_ISR                                           0     0      0       0
 ---------------------------------------------------------------------------------
 (7) _TIMER1_ISR                                           0     0      0       0
 ---------------------------------------------------------------------------------
 (7) _TIMER0_ISR                                           0     0      0       0
 ---------------------------------------------------------------------------------
 (7) _RB7_ISR                                              1     1      0      22
                                              0 COMRAM     1     1      0
 ---------------------------------------------------------------------------------
 (7) _RB6_ISR                                              1     1      0      22
                                              0 COMRAM     1     1      0
 ---------------------------------------------------------------------------------
 (7) _RB5_ISR                                              1     1      0      22
                                              0 COMRAM     1     1      0
 ---------------------------------------------------------------------------------
 (7) _RB4_ISR                                              1     1      0      15
                                              0 COMRAM     1     1      0
 ---------------------------------------------------------------------------------
 (7) _MSSP_I2C_ISR                                         0     0      0     175
                   Absolute function *
   _MSSP_I2C_DefaultInterruptHandler *
 ---------------------------------------------------------------------------------
 (8) _MSSP_I2C_DefaultInterruptHandler                     0     0      0     175
          _MSSP_I2C_SLAVE_Read_Write
 ---------------------------------------------------------------------------------
 (9) _MSSP_I2C_SLAVE_Read_Write                            5     1      4     175
                                              0 COMRAM     4     0      4
 ---------------------------------------------------------------------------------
 (8) Absolute function(Fake)                               0     0      0       0
 ---------------------------------------------------------------------------------
 (7) _MSSP_I2C_BUS_COL_ISR                                 0     0      0       0
 ---------------------------------------------------------------------------------
 (7) _INT2_ISR                                             0     0      0       0
 ---------------------------------------------------------------------------------
 (7) _INT1_ISR                                             0     0      0       0
 ---------------------------------------------------------------------------------
 (7) _INT0_ISR                                             0     0      0       0
 ---------------------------------------------------------------------------------
 (7) _EUSART_TX_ISR                                        0     0      0       0
 ---------------------------------------------------------------------------------
 (7) _EUSART_RX_ISR                                        0     0      0       0
 ---------------------------------------------------------------------------------
 (7) _EUSART_OVERRUN_ERROR_ISR                             0     0      0       0
 ---------------------------------------------------------------------------------
 (7) _EUSART_FRAMIN_ERROR_ISR                              0     0      0       0
 ---------------------------------------------------------------------------------
 (7) _CCP2_ISR                                             0     0      0       0
 ---------------------------------------------------------------------------------
 (7) _CCP1_ISR                                             0     0      0       0
 ---------------------------------------------------------------------------------
 (7) _ADC_ISR                                              0     0      0       0
 ---------------------------------------------------------------------------------
 Estimated maximum stack depth 9
 ---------------------------------------------------------------------------------

 Call Graph Graphs:

 _main (ROOT)
   _MSSP_I2C_Init
     _MSSP_I2C_Interrupt_Configuration
     ___fladd
       ___fldiv (ARG)
         ___xxtofl (ARG)
       ___xxtofl (ARG)
     ___fldiv
     ___fltol
       ___fladd (ARG)
       ___fldiv (ARG)
       ___xxtofl (ARG)
     ___xxtofl
   _application_intialize
     _ecu_layer_initialize
       _led_initialize
         _gpio_pin_initialize
           _gpio_pin_direction_initialize
           _gpio_pin_write_logic
   _led_turn_off
     _gpio_pin_write_logic
   _led_turn_on
     _gpio_pin_write_logic

 _InterruptManager (ROOT)
   _ADC_ISR
   _CCP1_ISR
   _CCP2_ISR
   _EUSART_FRAMIN_ERROR_ISR
   _EUSART_OVERRUN_ERROR_ISR
   _EUSART_RX_ISR
   _EUSART_TX_ISR
   _INT0_ISR
   _INT1_ISR
   _INT2_ISR
   _MSSP_I2C_BUS_COL_ISR
   _MSSP_I2C_ISR
     Absolute function(Fake) *
     _MSSP_I2C_DefaultInterruptHandler *
       _MSSP_I2C_SLAVE_Read_Write
   _RB4_ISR
   _RB5_ISR
   _RB6_ISR
   _RB7_ISR
   _TIMER0_ISR
   _TIMER1_ISR
   _TIMER2_ISR
   _TIMER3_ISR

 Address spaces:
Name               Size   Autos  Total    Cost      Usage
BIGRAM             F7F      0       0      49        0.0%
EEDATA             400      0       0       0        0.0%
BITBANK14          100      0       0      33        0.0%
BANK14             100      0       0      34        0.0%
BITBANK13          100      0       0      31        0.0%
BANK13             100      0       0      32        0.0%
BITBANK12          100      0       0      29        0.0%
BANK12             100      0       0      30        0.0%
BITBANK11          100      0       0      27        0.0%
BANK11             100      0       0      28        0.0%
BITBANK10          100      0       0      25        0.0%
BANK10             100      0       0      26        0.0%
BITBANK9           100      0       0      23        0.0%
BANK9              100      0       0      24        0.0%
BITBANK8           100      0       0      21        0.0%
BANK8              100      0       0      22        0.0%
BITBANK7           100      0       0      19        0.0%
BANK7              100      0       0      20        0.0%
BITBANK6           100      0       0      17        0.0%
BANK6              100      0       0      18        0.0%
BITBANK5           100      0       0      15        0.0%
BANK5              100      0       0      16        0.0%
BITBANK4           100      0       0      13        0.0%
BANK4              100      0       0      14        0.0%
BITBANK3           100      0       0      10        0.0%
BANK3              100      0       0      11        0.0%
BITBANK2           100      0       0       8        0.0%
BANK2              100      0       0       9        0.0%
BITBANK1           100      0       0       6        0.0%
BANK1              100      0       0       7        0.0%
BITBANK15           80      0       0      35        0.0%
BANK15              80      0       0      36        0.0%
BITBANK0            80      0       0       4        0.0%
BANK0               80      7      5B       5       71.1%
BITCOMRAM           7E      0       0       0        0.0%
COMRAM              7E     47      76       1       93.7%
BITBIGSFRhlhhhl     18      0       0      38        0.0%
BITBIGSFRllllh      10      0       0      47        0.0%
BITBIGSFRhh          D      0       0      37        0.0%
BITBIGSFRlllhh       6      0       0      45        0.0%
BITBIGSFRhlhhhl      5      0       0      39        0.0%
BITBIGSFRllhllh      4      0       0      42        0.0%
BITBIGSFRllhllh      4      0       0      43        0.0%
BITBIGSFRllhllh      1      0       0      41        0.0%
BITBIGSFRhlhhhl      1      0       0      40        0.0%
BITBIGSFRlllhl       1      0       0      46        0.0%
BITBIGSFRllhlll      1      0       0      44        0.0%
BITBIGSFRlllll       1      0       0      48        0.0%
BIGSFR               0      0       0     200        0.0%
BITSFR               0      0       0     200        0.0%
SFR                  0      0       0     200        0.0%
STACK                0      0       0       2        0.0%
NULL                 0      0       0       0        0.0%
ABS                  0      0      D1      12        0.0%
DATA                 0      0      D1       3        0.0%
CODE                 0      0       0       0        0.0%


Microchip Technology PIC18 Macro Assembler V2.40 build 20220703182018 
Symbol Table                                                                                   Fri Jul 14 22:02:31 2023

                         ??_InterruptManager 0005                                 ___fldiv@aexp 002F  
                               ___fldiv@bexp 002E                                 ___fldiv@sign 0027  
                                _SSPSTATbits 000FC7                                          l300 2524  
                                        l240 27D4                                          l282 253C  
                                        l293 24AE                                          l286 2596  
                                        l712 2602                                          l296 24C6  
                                        l289 2450                                          l672 2178  
                                        l691 22A4                                          l780 1DBC  
                                        l774 1CC4                                          l792 1E80  
                                        l868 26AE                              __end_of_ADC_ISR 282E  
                        led_initialize@F3045 006E                                          prod 000FF3  
                                        tosl 000FFD                                          wreg 000FE8  
                      relay_initialize@F3039 006A                                 ?_led_turn_on 0013  
                   _EUSART_OVERRUN_ERROR_ISR 2830                              __end_of_RB4_ISR 27B2  
                            __end_of_RB5_ISR 2798                              __end_of_RB6_ISR 277E  
                            __end_of_RB7_ISR 2764                                 ___fltol@exp1 00D5  
                                       l2220 11B8                                         l2218 1204  
                                       l2235 131E                                         l2227 14D4  
                                       l2219 11F2                                         l2244 13EE  
                                       l2245 13DC                                         l2272 1CA6  
                                       l2352 1F70                                         l2345 1ED8  
                                       l2274 1B06                                         l2283 1B4C  
                                       l2348 2034                                         l2285 1BC4  
                                       l2277 1ACA                                         l2286 1BB2  
                                       l2359 1FCC                                         l1687 280C  
                                       l1679 2432                                         l8000 1C9A  
                                       l5600 2600                                         l8002 1C9C  
                                       l8010 22A6                                         l5610 2540  
                                       l6250 243A                                         l1987 23AC  
                                       l8020 22FE                                         l8012 22BE  
                                       l8100 1CA8                                         l5612 2576  
                                       l5604 2526                                         l6260 248C  
                                       l6252 243A                                         l8022 230E  
                                       l8110 1D66                                         l8102 1CA8  
                                       l5550 2076                                         l5542 2036  
                                       l5614 2578                                         l5606 2526  
                                       l6270 24C2                                         l6262 249E  
                                       l6254 244C                                         l8032 2338  
                                       l8024 2312                                         l8016 22D2  
                                       l8120 1DC2                                         l8112 1D80  
                                       l8104 1CBC                                         l5552 20D8  
                                       l5544 203A                                         l5616 258A  
                                       l5608 2538                                         l6272 24CA  
                                       l6256 2454                                         l8050 239C  
                                       l8042 2360                                         l8034 2342  
                                       l8026 2320                                         l8018 22FC  
                                       l8130 1E12                                         l8114 1D9A  
                                       l8122 1DD2                                         l8106 1CC6  
                                       l5546 204C                                         l5570 2190  
                                       l5722 27C8                                         l6274 2500  
                                       l6266 24B0                                         l6258 248A  
                                       l8210 23B2                                         l8044 236C  
                                       l8036 234C                                         l8060 1EE8  
                                       l8140 1E68                                         l8132 1E2C  
                                       l8124 1DEE                                         l8116 1DA0  
                                       l8108 1CE0                                         l5556 2134  
                                       l5548 206E                                         l5580 2278  
                                       l5572 21B2                                         l6276 2502  
                                       l6268 24B0                                         l8220 23C2  
                                       l8212 23B6                                         l8046 237C  
                                       l8070 1F26                                         l8062 1EFE  
                                       l8054 1E84                                         l8142 1E6A  
                                       l8134 1E2E                                         l8126 1DF0  
                                       l8118 1DBA                                         l5558 2176  
                                       l5574 21BA                                         l5582 22A2  
                                       l5566 217A                                         l5590 2598  
                                       l6470 2808                                         l6278 2514  
                                       l8230 23E8                                         l8222 23C4  
                                       l8214 23BA                                         l8206 23AE  
                                       l8048 238C                                         l8080 1FAE  
                                       l8072 1F58                                         l8056 1E94  
                                       l8144 1E76                                         l8136 1E48  
                                       l8128 1E0C                                         l5576 2216  
                                       l5568 217E                                         l5592 2598  
                                       l8232 23EE                                         l8224 23CC  
                                       l8216 23BE                                         l8208 23AE  
                                       l8090 2004                                         l8082 1FBC  
                                       l8074 1F5A                                         l8066 1F12  
                                       l8058 1EA2                                         l8146 1E78  
                                       l8138 1E4E                                         l5594 25AA  
                                       l8234 2400                                         l8226 23D4  
                                       l8218 23C0                                         l7700 10AC  
                                       l8092 2014                                         l8084 1FDA  
                                       l8076 1F66                                         l8068 1F1A  
                                       l8148 1E7E                                         l5596 25CC  
                                       l6468 2808                                         l8236 2410  
                                       l8228 23DC                                         l7702 10BC  
                                       l7710 10E6                                         l8094 2022  
                                       l8086 1FDC                                         l8078 1FA2  
                                       l5598 25D4                                         l8238 2422  
                                       l7800 12EE                                         l7720 111E  
                                       l7712 10F6                                         l7704 10CC  
                                       l8096 2024                                         l8088 1FE0  
                                       l8280 228C                                         l7802 12FE  
                                       l7730 1132                                         l7722 1122  
                                       l7714 1108                                         l7706 10DC  
                                       l8282 2160                                         l7660 26A4  
                                       l7820 1380                                         l7812 1358  
                                       l7804 130E                                         l7740 1146  
                                       l7732 1136                                         l7724 1126  
                                       l7716 1116                                         l7708 10DE  
                                       l7900 19A0                                         l7662 26A6  
                                       l7822 1388                                         l7814 1362  
                                       l7806 1334                                         l7830 13AC  
                                       l7750 115A                                         l7742 114A  
                                       l7734 113A                                         l7726 112A  
                                       l7718 111A                                         l7670 1016  
                                       l7910 19DA                                         l7902 19B0  
                                       l7664 26A8                                         l7656 2666  
                                       l7840 13FE                                         l7832 13B0  
                                       l7824 138C                                         l7816 1370  
                                       l7808 1344                                         l7760 11D2  
                                       l7752 1184                                         l7744 114E  
                                       l7736 113E                                         l7728 112E  
                                       l7680 1052                                         l7672 1022  
                                       l7912 19F0                                         l7904 19C0  
                                       l7666 26AA                                         l7658 26A2  
                                       l7850 1464                                         l7842 140A  
                                       l7834 13BE                                         l7826 139C  
                                       l7818 1372                                         l7770 1212  
                                       l7762 11D6                                         l7754 11A0  
                                       l7746 1152                                         l7738 1142  
                                       l7690 1082                                         l7682 1062  
                                       l7674 1030                                         l7930 1A44  
                                       l7914 1A00                                         l7922 1A20  
                                       l7906 19C2                                         l7668 26AC  
                                       l7860 14AC                                         l7852 1474  
                                       l7844 1418                                         l7836 13D4  
                                       l7828 139E                                         l7780 1254  
                                       l7772 1222                                         l7764 11E4  
                                       l7756 11B0                                         l7748 1156  
                                       l7692 1094                                         l7684 1064  
                                       l7676 1032                                         l7940 1A96  
                                       l7932 1A5E                                         l7924 1A30  
                                       l7916 1A08                                         l7908 19CA  
                                       l7862 14AE                                         l7854 1494  
                                       l7846 1452                                         l7790 1282  
                                       l7782 1262                                         l7766 11E6  
                                       l7758 11C6                                         l7694 1096  
                                       l7678 1042                                         l7686 106C  
                                       l7950 1AF2                                         l7942 1AA6  
                                       l7934 1A6E                                         l7926 1A30  
                                       l7918 1A0C                                         l7864 14B4  
                                       l7856 1498                                         l7848 1454  
                                       l7792 128C                                         l7784 126E  
                                       l7776 1236                                         l7768 11F0  
                                       l7696 109C                                         l7688 107C  
                                       l7960 1B32                                         l7952 1AF4  
                                       l7944 1ABA                                         l7936 1A7E  
                                       l7880 193A                                         l7872 190E  
                                       l7866 14C2                                         l7858 14A6  
                                       l7786 1272                                         l7778 1246  
                                       l7794 1292                                         l7698 10AA  
                                       l7970 1B6E                                         l7962 1B3C  
                                       l7954 1B04                                         l7946 1AC8  
                                       l7938 1A8E                                         l7890 1974  
                                       l7882 194A                                         l7874 191A  
                                       l7868 14C4                                         l7796 12B8  
                                       l7788 1280                                         l7980 1BE0  
                                       l7972 1B7C                                         l7964 1B4A  
                                       l7956 1B16                                         l7948 1AD4  
                                       l7892 197A                                         l7884 195A  
                                       l7876 1928                                         l7798 12EC  
                                       l7990 1C4C                                         l7982 1BEE  
                                       l7974 1BAA                                         l7958 1B2C  
                                       l7966 1B5C                                         l7894 1980  
                                       l7886 195C                                         l7878 192A  
                                       l7992 1C66                                         l7984 1C18  
                                       l7968 1B6A                                         l7896 198E  
                                       l7888 1964                                         l7994 1C82  
                                       l7978 1BD4                                         l7986 1C1C  
                                       l7898 1990                                         l7996 1C86  
                                       l7988 1C36                                         l7998 1C94  
                                       STR_1 1011                                         u4300 2190  
                                       u4301 218C                                         u4310 21B2  
                                       u4311 21AE                                         u4240 204C  
                                       u4241 2048                                         u4250 206E  
                                       u4251 206A                                         u4324 21DA  
                                       u4340 25AA                                         u4325 21D6  
                                       u4341 25A6                                         u4334 2236  
                                       u4350 25CC                                         u4335 2232  
                                       u4351 25C8                                         u4280 214C  
                                       u4264 2096                                         u4360 2538  
                                       u5400 24C2                                         u4281 2146  
                                       u4265 2092                                         u4361 2534  
                                       u5401 24BE                                         u4290 214E  
                                       u4274 20F8                                         u4275 20F4  
                                       u4375 2588                                         u5415 2512  
                                       u8000 2334                                         u8001 2330  
                                       u4377 258A                                         u5417 2514  
                                       u8010 235C                                         u8011 2358  
                                       u8020 237C                                         u8100 1FCC  
                                       u5380 244C                                         u8021 2378  
                                       u8101 1FC8                                         u5381 2448  
                                       u8030 238C                                         u8110 1FDA  
                                       u8031 2388                                         u8111 1FD6  
                                       u7400 10BC                                         u8120 2014  
                                       u8040 1E94                                         u8200 1E2C  
                                       u7401 10B8                                         u8121 2010  
                                       u8041 1E90                                         u8201 1E28  
                                       u7410 10CC                                         u8130 2022  
                                       u8050 1EA2                                         u8210 1E48  
                                       u7411 10C8                                         u8131 201E  
                                       u8051 1E9E                                         u8211 1E44  
                                       u5395 249C                                         u7500 1212  
                                       u7420 1108                                         u8060 1EFE  
                                       u8220 1E68                                         u8140 1CBC  
                                       u7501 120E                                         u7421 1104  
                                       u8061 1EFA                                         u8221 1E64  
                                       u8141 1CB8                                         u5397 249E  
                                       u7510 1222                                         u7430 1116  
                                       u7350 1030                                         u8070 1F54  
                                       u8150 1CE0                                         u7511 121E  
                                       u7431 1112                                         u7351 102C  
                                       u8071 1F50                                         u8151 1CDC  
                                       u7600 1380                                         u7520 1254  
                                       u7440 1184                                         u7360 1042  
                                       u8080 1F9E                                         u8160 1D80  
                                       u7601 137C                                         u7521 1250  
                                       u7441 1180                                         u7361 103E  
                                       u8081 1F9A                                         u8161 1D7C  
                                       u7610 139C                                         u7530 1262  
                                       u7450 119C                                         u7370 1052  
                                       u8090 1FBC                                         u8170 1D9A  
                                       u7611 1398                                         u7531 125E  
                                       u7451 1196                                         u7371 104E  
                                       u8091 1FB8                                         u8171 1D96  
                                       u7700 1474                                         u7620 13AC  
                                       u7540 1280                                         u7460 119E  
                                       u7380 1094                                         u8180 1DBA  
                                       u8260 2400                                         u7701 1470  
                                       u7621 13A8                                         u7541 127C  
                                       u7381 1090                                         u8181 1DB6  
                                       u8261 23FC                                         u7710 1494  
                                       u7630 13BE                                         u7550 12B8  
                                       u7470 11C6                                         u7390 10AA  
                                       u8190 1E0C                                         u8270 2422  
                                       u7711 1490                                         u7631 13BA  
                                       u7551 12B4                                         u7471 11C2  
                                       u7391 10A6                                         u8191 1E08  
                                       u8271 241E                                         u7720 14A6  
                                       u7640 13D4                                         u7560 12FE  
                                       u7480 11E4                                         u7800 19F0  
                                       u7721 14A2                                         u7641 13D0  
                                       u7561 12FA                                         u7481 11E0  
                                       u7801 19EC                                         u7730 14C2  
                                       u7650 13EA                                         u7570 1334  
                                       u7490 1204                                         u7810 1A30  
                                       u7731 14BE                                         u7651 13E6  
                                       u7571 1330                                         u7491 1200  
                                       u7811 1A2C                                         u7660 13FE  
                                       u7580 1344                                         u7900 1BAA  
                                       u7820 1AA6                                         u7740 1928  
                                       u7661 13FA                                         u7581 1340  
                                       u7901 1BA6                                         u7821 1AA2  
                                       u7741 1924                                         u7670 1418  
                                       u7590 1370                                         u7910 1BC0  
                                       u7830 1AC8                                         u7750 193A  
                                       u7671 1414                                         u7591 136C  
                                       u7911 1BBC                                         u7831 1AC4  
                                       u7751 1936                                         u7680 1452  
                                       u7920 1BD4                                         u7840 1AF2  
                                       u7760 194A                                         u7681 144E  
                                       u7921 1BD0                                         u7841 1AEE  
                                       u7761 1946                                         u7690 1464  
                                       u7930 1BEE                                         u7850 1B16  
                                       u7770 198E                                         u7691 1460  
                                       u7931 1BEA                                         u7851 1B12  
                                       u7771 198A                                         u7940 1C36  
                                       u7860 1B2C                                         u7780 19A0  
                                       u7941 1C32                                         u7861 1B28  
                                       u7781 199C                                         u7950 1C66  
                                       u7870 1B4A                                         u7790 19B0  
                                       u7951 1C62                                         u7871 1B46  
                                       u7791 19AC                                         u7960 1C94  
                                       u7880 1B6A                                         u7961 1C90  
                                       u7881 1B66                                         u7890 1B7C  
                                       u7970 22BE                                         u7891 1B78  
                                       u7971 22BA                                         u7980 22F2  
                                       u7990 2320                                         u7991 231C  
                                       u7985 22E8                                         _TMR2 000FCC  
                    ??_application_intialize 001B                     _RB4_InterruptHandlerHigh 0052  
                                       _led1 0075                                         _main 23AE  
                           __end_of_CCP1_ISR 282A                             __end_of_CCP2_ISR 2826  
                   _RB7_InterruptHandlerHigh 0096                                         fsr2h 000FDA  
                                       indf2 000FDF                                         fsr1l 000FE1  
                                       fsr2l 000FD9                                         btemp 0077  
                     __end_of_led_initialize 2598                                         prodl 000FF3  
                                       start 000E                              ___fldiv@new_exp 0028  
                              ?_led_turn_off 0013                                 ___param_bank 000000  
                       _gpio_pin_write_logic 217A                                  ?_TIMER0_ISR 0001  
                                ?_TIMER1_ISR 0001                                  ?_TIMER2_ISR 0001  
                                ?_TIMER3_ISR 0001                             __end_of_INT0_ISR 281E  
                           __end_of_INT1_ISR 281A                             __end_of_INT2_ISR 2816  
                              _EUSART_RX_ISR 282E                                ___fltol@sign1 00D4  
                              _EUSART_TX_ISR 281E                              __end_of___fladd 14D6  
                                      ?_main 0001                              __end_of___fldiv 1CA8  
                                      _EEADR 000FA9                              __end_of___fltol 23AE  
                                      i2l472 282C                                        i2l570 2824  
                                      i2l565 2828                                        i2l852 26F0  
                                      i2l860 2720                                        i2l925 281C  
                                      i2l933 2814                                        i2l855 26F2  
                                      i2l848 26EE                                        i2l929 2818  
                                      i2l865 2810                                        i2l849 26D0  
                                      i2l957 27B0                                        i2l966 2796  
                                      i2l975 277C                                        i2l984 2762  
                                      _RCREG 000FAE                          relay_turn_off@F3049 0068  
                                      _TMR0H 000FD7                                        _TMR1H 000FCF  
                                      _TMR0L 000FD6                                        _TMR1L 000FCE  
                                      _TMR3H 000FB3                                        _TMR3L 000FB2  
                                      _SPBRG 000FAF                                        _TRISA 000F92  
                                      _TRISB 000F93                                        _TRISE 000F96  
                                      _TXREG 000FAD                                        _lcd_1 00CB  
                                      pclath 000FFA                                        pclatu 000FFB  
                                      tablat 000FF5                                        ttemp5 0078  
                                      ttemp6 007B                                        ttemp7 007F  
                                      status 000FD8                                        wtemp8 0078  
                 ?_MSSP_I2C_SLAVE_Read_Write 0001                              ?_led_initialize 0017  
                             ??_led_turn_off 0015               ?_gpio_pin_direction_initialize 0009  
                       _SPI_ImterruptHandler 0092                              __initialization 2604  
                               __end_of_main 243A                        ?_gpio_pin_write_logic 0009  
                                  ??_ADC_ISR 0001                               ?_EUSART_RX_ISR 0001  
                             ?_EUSART_TX_ISR 0001                                _lat_registers 00B7  
                                     ??_main 0048                               _i2c_slave_2rec 006F  
                              __activetblptr 000003                             led_turn_on@F3050 006D  
                                  ??_RB4_ISR 0001                                    ??_RB5_ISR 0001  
                                  ??_RB6_ISR 0001                                    ??_RB7_ISR 0001  
                 _EUSART_OverrunErrorHandler 0082                                       _ADRESH 000FC4  
                                     _EEADRH 000FAA                                       _ADRESL 000FC3  
                                     _EEDATA 000FA8                                       _CCPR1H 000FBF  
                                     _CCPR2H 000FBC                                       _CCPR1L 000FBE  
                                     _CCPR2L 000FBB                                       _EECON2 000FA7  
   __end_of_MSSP_I2C_Interrupt_Configuration 26B0           ??_MSSP_I2C_Interrupt_Configuration 000B  
          ?_MSSP_I2C_Interrupt_Configuration 0009             _MSSP_I2C_Interrupt_Configuration 2666  
                                     i2l1201 1888                                       i2l1203 18A8  
                                     i2l1212 18FA                                       i2l1205 18C8  
                                     i2l1208 18E8                                       i2l1171 15D0  
                                     i2l1163 1508                                       i2l1181 1724  
                                     i2l1173 1614                                       i2l1165 1528  
                                     i2l1191 17E8                                       i2l1183 1768  
                                     i2l1175 1658                                       i2l1167 1548  
                                     i2l1328 27F8                                       i2l1408 27EC  
                                     i2l1505 27E0                                       i2l1193 1808  
                                     i2l1185 1788                                       i2l1177 169C  
                                     i2l1169 158C                                       i2l1195 1828  
                                     i2l1187 17A8                                       i2l1179 16E0  
                                     i2l1621 2820                                       i2l1197 1848  
                                     i2l1189 17C8                                       i2l3302 2812  
                                     i2l3310 27B0                                       i2l1631 2832  
                                     i2l1199 1868                                       i2l1449 2800  
                                     i2l1626 282E                                       i2l3306 279A  
                                     i2l1636 2830                                       i2l3308 279C  
                                     i2l3174 282A                                       i2l3184 2822  
                                     i2l3178 2826                                       i2l1669 27C6  
                                     i2l3294 281A                                       i2l3288 280E  
                                     i2l3298 2816                                       i2l7200 15DE  
                                     i2l7210 1622                                       i2l7202 15EC  
                                     i2l5620 26B0                                       i2l6404 274C  
                                     i2l6420 27F4                                       i2l7300 18B6  
                                     i2l7220 1666                                       i2l7212 1630  
                                     i2l7204 15FA                                       i2l5622 26C0  
                                     i2l6406 274E                                       i2l7302 18C4  
                                     i2l7230 16AA                                       i2l7222 1674  
                                     i2l7214 163E                                       i2l7206 160A  
                                     i2l5624 26CE                                       i2l6408 2762  
                                     i2l6416 27EE                                       i2l6424 27E2  
                                     i2l6440 27D6                                       i2l7304 18D6  
                                     i2l7240 16EE                                       i2l7232 16B8  
                                     i2l7224 1682                                       i2l7216 164E  
                                     i2l7208 160E                                       i2l6450 281E  
                                     i2l5626 26DE                                       i2l6418 27F0  
                                     i2l6426 27E4                                       i2l6434 27FA  
                                     i2l6442 27D8                                       i2l7306 18E4  
                                     i2l7250 1732                                       i2l7242 16FC  
                                     i2l7234 16C6                                       i2l7226 1692  
                                     i2l7218 1652                                       i2l7170 1504  
                                     i2l6460 2830                                       i2l6380 2780  
                                     i2l6428 27E8                                       i2l6444 27DC  
                                     i2l7308 18F6                                       i2l7260 1776  
                                     i2l7252 1740                                       i2l7244 170A  
                                     i2l7236 16D6                                       i2l7228 1696  
                                     i2l7180 1556                                       i2l7172 1516  
                                     i2l6374 26F4                                       i2l6382 2782  
                                     i2l7270 17C4                                       i2l7262 1784  
                                     i2l7254 174E                                       i2l7246 171A  
                                     i2l7238 16DA                                       i2l7190 159A  
                                     i2l7182 1564                                       i2l7174 1524  
                                     i2l7166 14E8                                       i2l6464 2832  
                                     i2l6456 282E                                       i2l6376 26F6  
                                     i2l6384 2796                                       i2l6392 2766  
                                     i2l7280 1816                                       i2l7272 17D6  
                                     i2l7264 1796                                       i2l7256 175E  
                                     i2l7248 171E                                       i2l7192 15A8  
                                     i2l7184 1572                                       i2l7176 1536  
                                     i2l7168 14F6                                       i2l5738 27B2  
                                     i2l6378 2708                                       i2l6394 2768  
                                     i2l7290 1864                                       i2l7282 1824  
                                     i2l7274 17E4                                       i2l7266 17A4  
                                     i2l7258 1762                                       i2l7194 15B6  
                                     i2l7186 1582                                       i2l7178 1544  
                                     i2l6396 277C                                       i2l7292 1876  
                                     i2l7284 1836                                       i2l7276 17F6  
                                     i2l7268 17B6                                       i2l7196 15C6  
                                     i2l7188 1586                                       i2l7294 1884  
                                     i2l7286 1844                                       i2l7278 1804  
                                     i2l7198 15CA                                       i2l7296 1896  
                                     i2l7288 1856                                       i2l7298 18A4  
                    _TIMER0_InterruptHandler 0090                                       _SPBRGH 000FB0  
                                     _SSPADD 000FC8                                       _SSPBUF 000FC9  
                        _I2CInterruptHandler 005C                             __end_of___xxtofl 2036  
          __end_of_MSSP_I2C_SLAVE_Read_Write 26F4                        __end_of_MSSP_I2C_Init 1E82  
                    _RB6_InterruptHandlerLow 0098                                    ??___fladd 0038  
                                  ??___fldiv 001F  _I2C_Report_Receive_OverFlowInterruptHandler 009E  
                                  ??___fltol 0044                                       _btn_c2 00D1  
                                     clear_0 264A                                       clear_1 2656  
                      led_initialize@pin_obj 001A                                       isa$std 000001  
                                  ?_CCP1_ISR 0001                                 __pdataCOMRAM 0071  
                                  ?_CCP2_ISR 0001                                 __mediumconst 0000  
                                     tblptrh 000FF7                                       tblptrl 000FF6  
                                     tblptru 000FF8                                 ___xxtofl@arg 0013  
                               ___xxtofl@exp 0012                                 ___xxtofl@val 0009  
                                 __accesstop 0080                      __end_of__initialization 265C  
                                  ?_INT0_ISR 0001                                    ?_INT1_ISR 0001  
                                  ?_INT2_ISR 0001                                ___rparam_used 000001  
                _I2C_BUS_COLInterruptHandler 005A                                   ___fltol@f1 0040  
                          led_initialize@led 0017                            RB5_ISR@RB5_Source 0001  
                     ??_gpio_pin_write_logic 000C                               __pcstackCOMRAM 0001  
                               __pidataBANK0 2722                              ??_EUSART_RX_ISR 0001  
                            ??_EUSART_TX_ISR 0001                   ??_EUSART_OVERRUN_ERROR_ISR 0001  
    MSSP_I2C_Interrupt_Configuration@i2c_obj 0009     gpio_pin_direction_initialize@_pin_config 0009  
                                 ??_CCP1_ISR 0001                                   ??_CCP2_ISR 0001  
                       __end_of_led_turn_off 2526                              _i2c_slave_1_rec 0066  
                                 __pbssBANK0 0080                      _EUSART_FRAMIN_ERROR_ISR 2832  
                      _INT0_InterruptHandler 0058                                   ??_INT0_ISR 0001  
                                 ??_INT1_ISR 0001                                   ??_INT2_ISR 0001  
              __end_of_application_intialize 280E                            led_turn_off@F3055 006C  
                               ??_TIMER0_ISR 0001                                 ??_TIMER1_ISR 0001  
                               ??_TIMER2_ISR 0001                                 ??_TIMER3_ISR 0001  
                                    _ADC_ISR 282A                      _TIMER1_InterruptHandler 008E  
                          RB7_ISR@RB7_Source 0001                                      _RB4_ISR 2798  
                                    _RB5_ISR 277E                                      _RB6_ISR 2764  
                                    _RB7_ISR 274A                                    ?___xxtofl 0009  
                              ?_MSSP_I2C_ISR 0001                         led_turn_toggle@F3060 006B  
                           ??_led_initialize 0019                 __end_of_MSSP_I2C_BUS_COL_ISR 2812  
                             _tris_registers 00C1                           __end_of_TIMER0_ISR 27FA  
                         __end_of_TIMER1_ISR 27EE                           __end_of_TIMER2_ISR 2802  
                         __end_of_TIMER3_ISR 27E2                     _RB6_InterruptHandlerHigh 009A  
                ??_MSSP_I2C_SLAVE_Read_Write 0005                                      _i2c_obj 00A0  
                       _ADC_InterruptHandler 0064                                      __Hparam 0000  
                                    __Lparam 0000                          _gpio_pin_initialize 2598  
                                    ___fladd 1016                                      ___fldiv 190E  
                                    ___fltol 22A6                            __end_of_btn_valus 1011  
                               __psmallconst 1000                                      __pcinit 2604  
                                    __ramtop 1000                                      _led_D_0 0076  
                                    __ptext0 23AE                                      __ptext1 243A  
                                    __ptext2 24B0                                      __ptext3 2808  
                                    __ptext4 27C8                                      __ptext5 2526  
                                    __ptext6 2598                                      __ptext7 217A  
                                    __ptext8 2036                                      __ptext9 1CA8  
                                  _T0CONbits 000FD5                                    _T1CONbits 000FCD  
            ??_gpio_pin_direction_initialize 000B                               ??_MSSP_I2C_ISR 0005  
                                  _T2CONbits 000FCA                                   ??___xxtofl 000D  
                                  _T3CONbits 000FB1                 CCP_CompareModeSetValue@F3107 005E  
                       ?_gpio_pin_initialize 0013                    ??_EUSART_FRAMIN_ERROR_ISR 0001  
                             __pintcode_body 14D6             MSSP_I2C_SLAVE_Read_Write@i2c_obj 0001  
                       end_of_initialization 265C                                      int_func 14D6  
                        led_turn_off@pin_obj 0016                                    _RCSTAbits 000FAB  
                                    postdec1 000FE5                                      postdec2 000FDD  
                                    postinc0 000FEE                                      postinc2 000FDE  
                      _INT1_InterruptHandler 0056                                    _PORTBbits 000F81  
                  _MSSP_I2C_SLAVE_Read_Write 26B0                             _InterruptManager 0008  
                                ___fladd@grs 003F                                ___xxtofl@sign 0011  
                                  _TRISAbits 000F92                                    _TRISCbits 000F94  
                      ??_gpio_pin_initialize 0015                                  ___fldiv@grs 002A  
                                ___fldiv@rem 0023                      _TIMER2_InterruptHandler 008C  
                                _CCP1CONbits 000FBD                                  _CCP2CONbits 000FBA  
                                  _TXSTAbits 000FAC                      _RB4_InterruptHandlerLow 0050  
                    _RB7_InterruptHandlerLow 0094                                 _led_turn_off 24B0  
                         relay_turn_on@F3044 0069                                  _BAUDCONbits 000FB8  
                              __pidataCOMRAM 2802                               _timer0_preload 004C  
                       _MSSP_I2C_BUS_COL_ISR 280E                               _timer1_preload 004A  
                             _timer2_preload 0067                          start_initialization 2604  
                              ??_led_turn_on 0015                               _timer3_preload 0048  
      __end_of_gpio_pin_direction_initialize 217A                _gpio_pin_direction_initialize 2036  
                  _EUSART_RxInterruptHandler 0086                              led_turn_off@led 0013  
                       __end_of_MSSP_I2C_ISR 2722                   _EUSART_FramingErrorHandler 0084  
                                __pdataBANK0 00AD                                     ?_ADC_ISR 0001  
                      __end_of_EUSART_RX_ISR 2830                        __end_of_EUSART_TX_ISR 2822  
                      ?_MSSP_I2C_BUS_COL_ISR 0001                 __end_of_ecu_layer_initialize 27D6  
                                  ___fladd@a 0034                                    ___fladd@b 0030  
                       MSSP_I2C_Init@i2c_obj 00D6                                    ___fldiv@a 001B  
                                  ___fldiv@b 0017                                     ?_RB4_ISR 0001  
                                   ?_RB5_ISR 0001                                     ?_RB6_ISR 0001  
                                   ?_RB7_ISR 0001                                  __pbssCOMRAM 0048  
                              __pcstackBANK0 00D4                    ?_EUSART_OVERRUN_ERROR_ISR 0001  
                        __end_of_led_turn_on 24B0                        _INT2_InterruptHandler 0054  
                              _MSSP_I2C_Init 1CA8                        _application_intialize 2808  
                                  __pintcode 0008                                     ?___fladd 0030  
            gpio_pin_write_logic@_pin_config 0009                                     ?___fldiv 0017  
                                   ?___fltol 0040                    gpio_pin_write_logic@logic 000B  
                    _TIMER3_InterruptHandler 008A                                    _btn_valus 1001  
                                __smallconst 1000                                     _CCP1_ISR 2826  
                                   _CCP2_ISR 2822                                  _app_counter 0080  
                   _RB5_InterruptHandlerHigh 004E                                     _INT0_ISR 281A  
                                   _INT1_ISR 2816                                     _INT2_ISR 2812  
                                   _RB4_Flag 0074                                     _RB5_Flag 0073  
                                   _RB6_Flag 0072                                     _RB7_Flag 0071  
                          RB4_ISR@RB4_Source 0001                     __end_of_InterruptManager 190E  
                                   _PIE1bits 000F9D                                     _PIE2bits 000FA0  
                             ?_MSSP_I2C_Init 00D6                                     i2u147_40 27AC  
                                   i2u147_41 27A8                                     i2u440_40 26DE  
                                   i2u440_41 26DA                                     _PIR1bits 000F9E  
                                   _PIR2bits 000FA1                                     i2u700_40 18E4  
                                   i2u700_41 18E0                                     i2u701_40 18F6  
                                   i2u701_41 18F2                                     i2u438_40 26C0  
                                   i2u438_41 26BC                           led_turn_on@pin_obj 0016  
                                   i2u439_40 26CE                                     i2u439_41 26CA  
                                   i2u640_40 1504                                     i2u640_41 1500  
                                   i2u561_40 2708                                     i2u641_40 1516  
                                   i2u561_41 2704                                     i2u641_41 1512  
                                   i2u650_40 15A8                                     i2u642_40 1524  
                                   i2u650_41 15A4                                     i2u642_41 1520  
                                   i2u562_48 270E                                     i2u563_40 2792  
                                   i2u651_40 15B6                                     i2u643_40 1536  
                                   i2u562_49 2720                                     i2u563_41 278E  
                                   i2u651_41 15B2                                     i2u643_41 1532  
                                   i2u564_40 2778                                     i2u660_40 164E  
                                   i2u652_40 15C6                                     i2u644_40 1544  
                                   i2u564_41 2774                                     i2u660_41 164A  
                                   i2u652_41 15C2                                     i2u644_41 1540  
                                   i2u565_40 275E                                     i2u661_40 1666  
                                   i2u653_40 15DE                                     i2u645_40 1556  
                                   i2u565_41 275A                                     i2u661_41 1662  
                                   i2u653_41 15DA                                     i2u645_41 1552  
                                   i2u670_40 16FC                                     i2u662_40 1674  
                                   i2u654_40 15EC                                     i2u646_40 1564  
                                   i2u670_41 16F8                                     i2u662_41 1670  
                                   i2u654_41 15E8                                     i2u646_41 1560  
                                   i2u671_40 170A                                     i2u663_40 1682  
                                   i2u655_40 15FA                                     i2u647_40 1572  
                                   i2u639_40 14F6                                     i2u671_41 1706  
                                   i2u663_41 167E                                     i2u655_41 15F6  
                                   i2u647_41 156E                                     i2u639_41 14F2  
                                   i2u680_40 17A4                                     i2u672_40 171A  
                                   i2u664_40 1692                                     i2u656_40 160A  
                                   i2u648_40 1582                                     i2u680_41 17A0  
                                   i2u672_41 1716                                     i2u664_41 168E  
                                   i2u656_41 1606                                     i2u648_41 157E  
                                   i2u681_40 17B6                                     i2u673_40 1732  
                                   i2u665_40 16AA                                     i2u657_40 1622  
                                   i2u649_40 159A                                     i2u681_41 17B2  
                                   i2u673_41 172E                                     i2u665_41 16A6  
                                   i2u657_41 161E                                     i2u649_41 1596  
                                   i2u690_40 1844                                     i2u682_40 17C4  
                                   i2u674_40 1740                                     i2u666_40 16B8  
                                   i2u658_40 1630                                     i2u690_41 1840  
                                   i2u682_41 17C0                                     i2u674_41 173C  
                                   i2u666_41 16B4                                     i2u658_41 162C  
                                   i2u691_40 1856                                     i2u683_40 17D6  
                                   i2u675_40 174E                                     i2u667_40 16C6  
                                   i2u659_40 163E                                     i2u691_41 1852  
                                   i2u683_41 17D2                                     i2u675_41 174A  
                                   i2u667_41 16C2                                     i2u659_41 163A  
                                   i2u692_40 1864                                     i2u684_40 17E4  
                                   i2u676_40 175E                                     i2u668_40 16D6  
                                   i2u692_41 1860                                     i2u684_41 17E0  
                                   i2u676_41 175A                                     i2u668_41 16D2  
                                   i2u693_40 1876                                     i2u685_40 17F6  
                                   i2u677_40 1776                                     i2u669_40 16EE  
                                   i2u693_41 1872                                     i2u685_41 17F2  
                                   i2u677_41 1772                                     i2u669_41 16EA  
                                   i2u694_40 1884                                     i2u686_40 1804  
                                   i2u678_40 1784                                     i2u694_41 1880  
                                   i2u686_41 1800                                     i2u678_41 1780  
                                   i2u695_40 1896                                     i2u687_40 1816  
                                   i2u679_40 1796                                     i2u695_41 1892  
                                   i2u687_41 1812                                     i2u679_41 1792  
                                   i2u696_40 18A4                                     i2u688_40 1824  
                                   i2u696_41 18A0                                     i2u688_41 1820  
                                   i2u697_40 18B6                                     i2u689_40 1836  
                                   i2u697_41 18B2                                     i2u689_41 1832  
                                   i2u698_40 18C4                                     i2u698_41 18C0  
                                   i2u699_40 18D6                                     i2u699_41 18D2  
                                  _slave_ack 0070             gpio_pin_direction_initialize@ret 0011  
                     ??_MSSP_I2C_BUS_COL_ISR 0001                                   _ADCON0bits 000FC2  
                                 _ADCON1bits 000FC1                                   _ADCON2bits 000FC0  
        fp__MSSP_I2C_DefaultInterruptHandler 0000     __end_of_MSSP_I2C_DefaultInterruptHandler 27C8  
         ??_MSSP_I2C_DefaultInterruptHandler 0005            ?_MSSP_I2C_DefaultInterruptHandler 0001  
           _MSSP_I2C_DefaultInterruptHandler 27B2                       gpio_pin_initialize@ret 0016  
                                _led_turn_on 243A                      gpio_pin_write_logic@ret 0012  
                                _INTCON2bits 000FF1                                  _INTCON3bits 000FF0  
                                  copy_data0 2618                                    copy_data1 2638  
                       _ecu_layer_initialize 27C8                                   _EECON1bits 000FA6  
                           MSSP_I2C_Init@ret 00DA                       ?_application_intialize 0001  
                             led_turn_on@led 0013                                     __Hrparam 0000  
                                   __Lrparam 0000                            RB6_ISR@RB6_Source 0001  
                      _CCP1_InterruptHandler 0062                  __end_of_gpio_pin_initialize 2604  
             gpio_pin_initialize@_pin_config 0013                     ?_EUSART_FRAMIN_ERROR_ISR 0001  
                                   ___xxtofl 1E82                                 _MSSP_I2C_ISR 26F4  
                                   __ptext10 1E82                                     __ptext11 22A6  
                                   __ptext20 274A                                     __ptext12 190E  
                                   __ptext21 2764                                     __ptext13 1016  
                                   __ptext30 281A                                     __ptext22 277E  
                                   __ptext14 2666                                     __ptext31 281E  
                                   __ptext23 2798                                     __ptext32 282E  
                                   __ptext24 26F4                                     __ptext16 27D6  
                                   __ptext33 2830                                     __ptext25 27B2  
                                   __ptext17 27FA                                     __ptext34 2832  
                                   __ptext26 26B0                                     __ptext18 27E2  
                                   __ptext35 2822                                     __ptext27 280E  
                                   __ptext19 27EE                                     __ptext36 2826  
                                   __ptext28 2812                                     __ptext37 282A  
                                   __ptext29 2816                                     __ptext38 0000  
                      ?_ecu_layer_initialize 0001                              ??_MSSP_I2C_Init 00D8  
                    _RB5_InterruptHandlerLow 009C                                     isa$xinst 000000  
                                   int$flags 0077            MSSP_I2C_SLAVE_Read_Write@i2c_data 0003  
           __end_of_EUSART_OVERRUN_ERROR_ISR 2832                                   _INTCONbits 000FF2  
               __end_of_gpio_pin_write_logic 22A6                                     intlevel2 0000  
                  _EUSART_TxInterruptHandler 0088                                   _TIMER0_ISR 27EE  
                                 _TIMER1_ISR 27E2                                   _TIMER2_ISR 27FA  
                                 _TIMER3_ISR 27D6              __end_of_EUSART_FRAMIN_ERROR_ISR 2834  
                             _port_registers 00AD                                  _SSPCON1bits 000FC6  
                                _SSPCON2bits 000FC5                                ___fladd@signs 003C  
                      _CCP2_InterruptHandler 0060                       ??_ecu_layer_initialize 001B  
                               ___fladd@aexp 003D                                 ___fladd@bexp 003E  
                          ?_InterruptManager 0001                               _led_initialize 2526  
